
extreme_complex_test.elf:     file format elf32-littleriscv


Disassembly of section .init:

00000000 <_start>:
   0:	00008117          	auipc	sp,0x8
   4:	ffc10113          	addi	sp,sp,-4 # 7ffc <__stack_top>
   8:	00010433          	add	s0,sp,zero
   c:	000022b7          	lui	t0,0x2
  10:	034000ef          	jal	44 <main>
  14:	00000513          	li	a0,0
  18:	0040006f          	j	1c <tohost_exit>

0000001c <tohost_exit>:
  1c:	00151513          	slli	a0,a0,0x1
  20:	00156513          	ori	a0,a0,1
  24:	00008337          	lui	t1,0x8
  28:	01030313          	addi	t1,t1,16 # 8010 <__stack_top+0x14>
  2c:	09000593          	li	a1,144
  30:	00007297          	auipc	t0,0x7
  34:	fd028293          	addi	t0,t0,-48 # 7000 <tohost>
  38:	00a2a023          	sw	a0,0(t0)
  3c:	00b32023          	sw	a1,0(t1)
  40:	0000006f          	j	40 <tohost_exit+0x24>

Disassembly of section .text:

00000044 <main>:
      44:	81010113          	addi	sp,sp,-2032
      48:	7e112623          	sw	ra,2028(sp)
      4c:	7e812423          	sw	s0,2024(sp)
      50:	7e912223          	sw	s1,2020(sp)
      54:	7f010413          	addi	s0,sp,2032
      58:	fffff2b7          	lui	t0,0xfffff
      5c:	8f028293          	addi	t0,t0,-1808 # ffffe8f0 <__stack_top+0xffff68f4>
      60:	00510133          	add	sp,sp,t0
      64:	000077b7          	lui	a5,0x7
      68:	01878793          	addi	a5,a5,24 # 7018 <results_array>
      6c:	00003737          	lui	a4,0x3
      70:	03970713          	addi	a4,a4,57 # 3039 <main+0x2ff5>
      74:	00e7a023          	sw	a4,0(a5)
      78:	000077b7          	lui	a5,0x7
      7c:	01878793          	addi	a5,a5,24 # 7018 <results_array>
      80:	00006737          	lui	a4,0x6
      84:	ba070713          	addi	a4,a4,-1120 # 5ba0 <__DATA_BEGIN__+0xba0>
      88:	00e7a223          	sw	a4,4(a5)
      8c:	000077b7          	lui	a5,0x7
      90:	01878793          	addi	a5,a5,24 # 7018 <results_array>
      94:	00008737          	lui	a4,0x8
      98:	70770713          	addi	a4,a4,1799 # 8707 <__stack_top+0x70b>
      9c:	00e7a423          	sw	a4,8(a5)
      a0:	000077b7          	lui	a5,0x7
      a4:	01878793          	addi	a5,a5,24 # 7018 <results_array>
      a8:	0000b737          	lui	a4,0xb
      ac:	26e70713          	addi	a4,a4,622 # b26e <__stack_top+0x3272>
      b0:	00e7a623          	sw	a4,12(a5)
      b4:	000077b7          	lui	a5,0x7
      b8:	01878793          	addi	a5,a5,24 # 7018 <results_array>
      bc:	0000e737          	lui	a4,0xe
      c0:	dd570713          	addi	a4,a4,-555 # ddd5 <__stack_top+0x5dd9>
      c4:	00e7a823          	sw	a4,16(a5)
      c8:	000077b7          	lui	a5,0x7
      cc:	01878793          	addi	a5,a5,24 # 7018 <results_array>
      d0:	00011737          	lui	a4,0x11
      d4:	93270713          	addi	a4,a4,-1742 # 10932 <__stack_top+0x8936>
      d8:	00e7aa23          	sw	a4,20(a5)
      dc:	000077b7          	lui	a5,0x7
      e0:	01878793          	addi	a5,a5,24 # 7018 <results_array>
      e4:	00013737          	lui	a4,0x13
      e8:	43570713          	addi	a4,a4,1077 # 13435 <__stack_top+0xb439>
      ec:	00e7ac23          	sw	a4,24(a5)
      f0:	000077b7          	lui	a5,0x7
      f4:	01878793          	addi	a5,a5,24 # 7018 <results_array>
      f8:	00016737          	lui	a4,0x16
      fc:	bb470713          	addi	a4,a4,-1100 # 15bb4 <__stack_top+0xdbb8>
     100:	00e7ae23          	sw	a4,28(a5)
     104:	000077b7          	lui	a5,0x7
     108:	01878793          	addi	a5,a5,24 # 7018 <results_array>
     10c:	00016737          	lui	a4,0x16
     110:	00b70713          	addi	a4,a4,11 # 1600b <__stack_top+0xe00f>
     114:	02e7a023          	sw	a4,32(a5)
     118:	000077b7          	lui	a5,0x7
     11c:	01878793          	addi	a5,a5,24 # 7018 <results_array>
     120:	00003737          	lui	a4,0x3
     124:	b6770713          	addi	a4,a4,-1177 # 2b67 <main+0x2b23>
     128:	02e7a223          	sw	a4,36(a5)
     12c:	00a00793          	li	a5,10
     130:	fef42223          	sw	a5,-28(s0)
     134:	0280006f          	j	15c <main+0x118>
     138:	000077b7          	lui	a5,0x7
     13c:	01878713          	addi	a4,a5,24 # 7018 <results_array>
     140:	fe442783          	lw	a5,-28(s0)
     144:	00279793          	slli	a5,a5,0x2
     148:	00f707b3          	add	a5,a4,a5
     14c:	0007a023          	sw	zero,0(a5)
     150:	fe442783          	lw	a5,-28(s0)
     154:	00178793          	addi	a5,a5,1
     158:	fef42223          	sw	a5,-28(s0)
     15c:	fe442703          	lw	a4,-28(s0)
     160:	06300793          	li	a5,99
     164:	fce7dae3          	bge	a5,a4,138 <main+0xf4>
     168:	000077b7          	lui	a5,0x7
     16c:	01878793          	addi	a5,a5,24 # 7018 <results_array>
     170:	7be00713          	li	a4,1982
     174:	02e7a423          	sw	a4,40(a5)
     178:	fe042623          	sw	zero,-20(s0)
     17c:	01100793          	li	a5,17
     180:	fef42423          	sw	a5,-24(s0)
     184:	fe042223          	sw	zero,-28(s0)
     188:	02c0006f          	j	1b4 <main+0x170>
     18c:	ffffe7b7          	lui	a5,0xffffe
     190:	ff078793          	addi	a5,a5,-16 # ffffdff0 <__stack_top+0xffff5ff4>
     194:	00878733          	add	a4,a5,s0
     198:	fe442783          	lw	a5,-28(s0)
     19c:	00279793          	slli	a5,a5,0x2
     1a0:	00f707b3          	add	a5,a4,a5
     1a4:	2607a223          	sw	zero,612(a5)
     1a8:	fe442783          	lw	a5,-28(s0)
     1ac:	00178793          	addi	a5,a5,1
     1b0:	fef42223          	sw	a5,-28(s0)
     1b4:	fe442703          	lw	a4,-28(s0)
     1b8:	01300793          	li	a5,19
     1bc:	fce7d8e3          	bge	a5,a4,18c <main+0x148>
     1c0:	fe042223          	sw	zero,-28(s0)
     1c4:	02c0006f          	j	1f0 <main+0x1ac>
     1c8:	ffffe7b7          	lui	a5,0xffffe
     1cc:	ff078793          	addi	a5,a5,-16 # ffffdff0 <__stack_top+0xffff5ff4>
     1d0:	00878733          	add	a4,a5,s0
     1d4:	fe442783          	lw	a5,-28(s0)
     1d8:	00279793          	slli	a5,a5,0x2
     1dc:	00f707b3          	add	a5,a4,a5
     1e0:	2207ae23          	sw	zero,572(a5)
     1e4:	fe442783          	lw	a5,-28(s0)
     1e8:	00178793          	addi	a5,a5,1
     1ec:	fef42223          	sw	a5,-28(s0)
     1f0:	fe442703          	lw	a4,-28(s0)
     1f4:	00900793          	li	a5,9
     1f8:	fce7d8e3          	bge	a5,a4,1c8 <main+0x184>
     1fc:	000077b7          	lui	a5,0x7
     200:	01878793          	addi	a5,a5,24 # 7018 <results_array>
     204:	07d00713          	li	a4,125
     208:	02e7a423          	sw	a4,40(a5)
     20c:	fe042223          	sw	zero,-28(s0)
     210:	12c0006f          	j	33c <main+0x2f8>
     214:	000077b7          	lui	a5,0x7
     218:	01878793          	addi	a5,a5,24 # 7018 <results_array>
     21c:	fe442703          	lw	a4,-28(s0)
     220:	02e7a423          	sw	a4,40(a5)
     224:	fe042023          	sw	zero,-32(s0)
     228:	0b80006f          	j	2e0 <main+0x29c>
     22c:	fe442703          	lw	a4,-28(s0)
     230:	00070793          	mv	a5,a4
     234:	00179793          	slli	a5,a5,0x1
     238:	00e787b3          	add	a5,a5,a4
     23c:	00279793          	slli	a5,a5,0x2
     240:	fe042703          	lw	a4,-32(s0)
     244:	00e78733          	add	a4,a5,a4
     248:	c4840793          	addi	a5,s0,-952
     24c:	00271713          	slli	a4,a4,0x2
     250:	00f707b3          	add	a5,a4,a5
     254:	0007a023          	sw	zero,0(a5)
     258:	fe442703          	lw	a4,-28(s0)
     25c:	00070793          	mv	a5,a4
     260:	00179793          	slli	a5,a5,0x1
     264:	00e787b3          	add	a5,a5,a4
     268:	00279793          	slli	a5,a5,0x2
     26c:	fe042703          	lw	a4,-32(s0)
     270:	00e78733          	add	a4,a5,a4
     274:	a0840793          	addi	a5,s0,-1528
     278:	00271713          	slli	a4,a4,0x2
     27c:	00f707b3          	add	a5,a4,a5
     280:	00002737          	lui	a4,0x2
     284:	70f70713          	addi	a4,a4,1807 # 270f <main+0x26cb>
     288:	00e7a023          	sw	a4,0(a5)
     28c:	fffff7b7          	lui	a5,0xfffff
     290:	ff078793          	addi	a5,a5,-16 # ffffeff0 <__stack_top+0xffff6ff4>
     294:	008786b3          	add	a3,a5,s0
     298:	fe442703          	lw	a4,-28(s0)
     29c:	00070793          	mv	a5,a4
     2a0:	00179793          	slli	a5,a5,0x1
     2a4:	00e787b3          	add	a5,a5,a4
     2a8:	00279793          	slli	a5,a5,0x2
     2ac:	fe042703          	lw	a4,-32(s0)
     2b0:	00e787b3          	add	a5,a5,a4
     2b4:	00279793          	slli	a5,a5,0x2
     2b8:	00f687b3          	add	a5,a3,a5
     2bc:	fff00713          	li	a4,-1
     2c0:	7ce7ac23          	sw	a4,2008(a5)
     2c4:	000077b7          	lui	a5,0x7
     2c8:	01878793          	addi	a5,a5,24 # 7018 <results_array>
     2cc:	fe042703          	lw	a4,-32(s0)
     2d0:	02e7a623          	sw	a4,44(a5)
     2d4:	fe042783          	lw	a5,-32(s0)
     2d8:	00178793          	addi	a5,a5,1
     2dc:	fef42023          	sw	a5,-32(s0)
     2e0:	fe042703          	lw	a4,-32(s0)
     2e4:	00b00793          	li	a5,11
     2e8:	f4e7d2e3          	bge	a5,a4,22c <main+0x1e8>
     2ec:	fe442703          	lw	a4,-28(s0)
     2f0:	00070793          	mv	a5,a4
     2f4:	00179793          	slli	a5,a5,0x1
     2f8:	00e787b3          	add	a5,a5,a4
     2fc:	00279793          	slli	a5,a5,0x2
     300:	00e787b3          	add	a5,a5,a4
     304:	00279793          	slli	a5,a5,0x2
     308:	ff078793          	addi	a5,a5,-16
     30c:	008787b3          	add	a5,a5,s0
     310:	a007ac23          	sw	zero,-1512(a5)
     314:	fffff7b7          	lui	a5,0xfffff
     318:	ff078793          	addi	a5,a5,-16 # ffffeff0 <__stack_top+0xffff6ff4>
     31c:	00878733          	add	a4,a5,s0
     320:	fe442783          	lw	a5,-28(s0)
     324:	00279793          	slli	a5,a5,0x2
     328:	00f707b3          	add	a5,a4,a5
     32c:	7a07a423          	sw	zero,1960(a5)
     330:	fe442783          	lw	a5,-28(s0)
     334:	00178793          	addi	a5,a5,1
     338:	fef42223          	sw	a5,-28(s0)
     33c:	fe442703          	lw	a4,-28(s0)
     340:	00b00793          	li	a5,11
     344:	ece7d8e3          	bge	a5,a4,214 <main+0x1d0>
     348:	00700793          	li	a5,7
     34c:	c4f42623          	sw	a5,-948(s0)
     350:	00900793          	li	a5,9
     354:	c4f42823          	sw	a5,-944(s0)
     358:	00e00793          	li	a5,14
     35c:	c4f42e23          	sw	a5,-932(s0)
     360:	00a00793          	li	a5,10
     364:	c8f42023          	sw	a5,-896(s0)
     368:	00f00793          	li	a5,15
     36c:	c8f42223          	sw	a5,-892(s0)
     370:	00b00793          	li	a5,11
     374:	caf42a23          	sw	a5,-844(s0)
     378:	00200793          	li	a5,2
     37c:	caf42e23          	sw	a5,-836(s0)
     380:	00600793          	li	a5,6
     384:	cef42423          	sw	a5,-792(s0)
     388:	00900793          	li	a5,9
     38c:	d0f42e23          	sw	a5,-740(s0)
     390:	00300793          	li	a5,3
     394:	d4f42823          	sw	a5,-688(s0)
     398:	00800793          	li	a5,8
     39c:	d8f42223          	sw	a5,-636(s0)
     3a0:	00c00793          	li	a5,12
     3a4:	daf42c23          	sw	a5,-584(s0)
     3a8:	00400793          	li	a5,4
     3ac:	def42623          	sw	a5,-532(s0)
     3b0:	00700793          	li	a5,7
     3b4:	e2f42023          	sw	a5,-480(s0)
     3b8:	00500793          	li	a5,5
     3bc:	e4f42a23          	sw	a5,-428(s0)
     3c0:	00d00793          	li	a5,13
     3c4:	d8f42a23          	sw	a5,-620(s0)
     3c8:	01000793          	li	a5,16
     3cc:	cef42a23          	sw	a5,-780(s0)
     3d0:	01200793          	li	a5,18
     3d4:	c8f42c23          	sw	a5,-872(s0)
     3d8:	a0042423          	sw	zero,-1528(s0)
     3dc:	fc042e23          	sw	zero,-36(s0)
     3e0:	2e00006f          	j	6c0 <main+0x67c>
     3e4:	000027b7          	lui	a5,0x2
     3e8:	70f78793          	addi	a5,a5,1807 # 270f <main+0x26cb>
     3ec:	fcf42c23          	sw	a5,-40(s0)
     3f0:	fff00793          	li	a5,-1
     3f4:	fcf42a23          	sw	a5,-44(s0)
     3f8:	fe042223          	sw	zero,-28(s0)
     3fc:	09c0006f          	j	498 <main+0x454>
     400:	fffff7b7          	lui	a5,0xfffff
     404:	ff078793          	addi	a5,a5,-16 # ffffeff0 <__stack_top+0xffff6ff4>
     408:	00878733          	add	a4,a5,s0
     40c:	fe442783          	lw	a5,-28(s0)
     410:	00279793          	slli	a5,a5,0x2
     414:	00f707b3          	add	a5,a4,a5
     418:	7a87a783          	lw	a5,1960(a5)
     41c:	04079063          	bnez	a5,45c <main+0x418>
     420:	fe442703          	lw	a4,-28(s0)
     424:	a0840793          	addi	a5,s0,-1528
     428:	00271713          	slli	a4,a4,0x2
     42c:	00f707b3          	add	a5,a4,a5
     430:	0007a783          	lw	a5,0(a5)
     434:	fd842703          	lw	a4,-40(s0)
     438:	02e7d263          	bge	a5,a4,45c <main+0x418>
     43c:	fe442703          	lw	a4,-28(s0)
     440:	a0840793          	addi	a5,s0,-1528
     444:	00271713          	slli	a4,a4,0x2
     448:	00f707b3          	add	a5,a4,a5
     44c:	0007a783          	lw	a5,0(a5)
     450:	fcf42c23          	sw	a5,-40(s0)
     454:	fe442783          	lw	a5,-28(s0)
     458:	fcf42a23          	sw	a5,-44(s0)
     45c:	000077b7          	lui	a5,0x7
     460:	01878793          	addi	a5,a5,24 # 7018 <results_array>
     464:	fe442703          	lw	a4,-28(s0)
     468:	02e7a423          	sw	a4,40(a5)
     46c:	000077b7          	lui	a5,0x7
     470:	01878793          	addi	a5,a5,24 # 7018 <results_array>
     474:	fd842703          	lw	a4,-40(s0)
     478:	02e7a623          	sw	a4,44(a5)
     47c:	000077b7          	lui	a5,0x7
     480:	01878793          	addi	a5,a5,24 # 7018 <results_array>
     484:	fd442703          	lw	a4,-44(s0)
     488:	02e7a823          	sw	a4,48(a5)
     48c:	fe442783          	lw	a5,-28(s0)
     490:	00178793          	addi	a5,a5,1
     494:	fef42223          	sw	a5,-28(s0)
     498:	fe442703          	lw	a4,-28(s0)
     49c:	00b00793          	li	a5,11
     4a0:	f6e7d0e3          	bge	a5,a4,400 <main+0x3bc>
     4a4:	fd442703          	lw	a4,-44(s0)
     4a8:	fff00793          	li	a5,-1
     4ac:	22f70263          	beq	a4,a5,6d0 <main+0x68c>
     4b0:	fffff7b7          	lui	a5,0xfffff
     4b4:	ff078793          	addi	a5,a5,-16 # ffffeff0 <__stack_top+0xffff6ff4>
     4b8:	00878733          	add	a4,a5,s0
     4bc:	fd442783          	lw	a5,-44(s0)
     4c0:	00279793          	slli	a5,a5,0x2
     4c4:	00f707b3          	add	a5,a4,a5
     4c8:	00100713          	li	a4,1
     4cc:	7ae7a423          	sw	a4,1960(a5)
     4d0:	ffffe7b7          	lui	a5,0xffffe
     4d4:	ff078793          	addi	a5,a5,-16 # ffffdff0 <__stack_top+0xffff5ff4>
     4d8:	008787b3          	add	a5,a5,s0
     4dc:	23c7a783          	lw	a5,572(a5)
     4e0:	00178713          	addi	a4,a5,1
     4e4:	ffffe7b7          	lui	a5,0xffffe
     4e8:	ff078793          	addi	a5,a5,-16 # ffffdff0 <__stack_top+0xffff5ff4>
     4ec:	008787b3          	add	a5,a5,s0
     4f0:	22e7ae23          	sw	a4,572(a5)
     4f4:	000077b7          	lui	a5,0x7
     4f8:	01878793          	addi	a5,a5,24 # 7018 <results_array>
     4fc:	fd442703          	lw	a4,-44(s0)
     500:	02e7ae23          	sw	a4,60(a5)
     504:	ffffe7b7          	lui	a5,0xffffe
     508:	ff078793          	addi	a5,a5,-16 # ffffdff0 <__stack_top+0xffff5ff4>
     50c:	008787b3          	add	a5,a5,s0
     510:	23c7a703          	lw	a4,572(a5)
     514:	000077b7          	lui	a5,0x7
     518:	01878793          	addi	a5,a5,24 # 7018 <results_array>
     51c:	04e7a023          	sw	a4,64(a5)
     520:	fe042223          	sw	zero,-28(s0)
     524:	1840006f          	j	6a8 <main+0x664>
     528:	fffff7b7          	lui	a5,0xfffff
     52c:	ff078793          	addi	a5,a5,-16 # ffffeff0 <__stack_top+0xffff6ff4>
     530:	00878733          	add	a4,a5,s0
     534:	fe442783          	lw	a5,-28(s0)
     538:	00279793          	slli	a5,a5,0x2
     53c:	00f707b3          	add	a5,a4,a5
     540:	7a87a783          	lw	a5,1960(a5)
     544:	12079463          	bnez	a5,66c <main+0x628>
     548:	fd442703          	lw	a4,-44(s0)
     54c:	00070793          	mv	a5,a4
     550:	00179793          	slli	a5,a5,0x1
     554:	00e787b3          	add	a5,a5,a4
     558:	00279793          	slli	a5,a5,0x2
     55c:	fe442703          	lw	a4,-28(s0)
     560:	00e78733          	add	a4,a5,a4
     564:	c4840793          	addi	a5,s0,-952
     568:	00271713          	slli	a4,a4,0x2
     56c:	00f707b3          	add	a5,a4,a5
     570:	0007a783          	lw	a5,0(a5)
     574:	0ef05c63          	blez	a5,66c <main+0x628>
     578:	fd442703          	lw	a4,-44(s0)
     57c:	a0840793          	addi	a5,s0,-1528
     580:	00271713          	slli	a4,a4,0x2
     584:	00f707b3          	add	a5,a4,a5
     588:	0007a683          	lw	a3,0(a5)
     58c:	fd442703          	lw	a4,-44(s0)
     590:	00070793          	mv	a5,a4
     594:	00179793          	slli	a5,a5,0x1
     598:	00e787b3          	add	a5,a5,a4
     59c:	00279793          	slli	a5,a5,0x2
     5a0:	fe442703          	lw	a4,-28(s0)
     5a4:	00e78733          	add	a4,a5,a4
     5a8:	c4840793          	addi	a5,s0,-952
     5ac:	00271713          	slli	a4,a4,0x2
     5b0:	00f707b3          	add	a5,a4,a5
     5b4:	0007a783          	lw	a5,0(a5)
     5b8:	00f687b3          	add	a5,a3,a5
     5bc:	f2f42423          	sw	a5,-216(s0)
     5c0:	fe442703          	lw	a4,-28(s0)
     5c4:	a0840793          	addi	a5,s0,-1528
     5c8:	00271713          	slli	a4,a4,0x2
     5cc:	00f707b3          	add	a5,a4,a5
     5d0:	0007a783          	lw	a5,0(a5)
     5d4:	f2842703          	lw	a4,-216(s0)
     5d8:	06f75c63          	bge	a4,a5,650 <main+0x60c>
     5dc:	fe442703          	lw	a4,-28(s0)
     5e0:	a0840793          	addi	a5,s0,-1528
     5e4:	00271713          	slli	a4,a4,0x2
     5e8:	00f707b3          	add	a5,a4,a5
     5ec:	f2842703          	lw	a4,-216(s0)
     5f0:	00e7a023          	sw	a4,0(a5)
     5f4:	fffff7b7          	lui	a5,0xfffff
     5f8:	ff078793          	addi	a5,a5,-16 # ffffeff0 <__stack_top+0xffff6ff4>
     5fc:	00878733          	add	a4,a5,s0
     600:	fe442783          	lw	a5,-28(s0)
     604:	00279793          	slli	a5,a5,0x2
     608:	00f707b3          	add	a5,a4,a5
     60c:	fd442703          	lw	a4,-44(s0)
     610:	7ce7ac23          	sw	a4,2008(a5)
     614:	fe842703          	lw	a4,-24(s0)
     618:	f2842783          	lw	a5,-216(s0)
     61c:	00f707b3          	add	a5,a4,a5
     620:	1af00593          	li	a1,431
     624:	00078513          	mv	a0,a5
     628:	000040ef          	jal	4628 <__modsi3>
     62c:	00050793          	mv	a5,a0
     630:	fef42423          	sw	a5,-24(s0)
     634:	000077b7          	lui	a5,0x7
     638:	01878793          	addi	a5,a5,24 # 7018 <results_array>
     63c:	0387a783          	lw	a5,56(a5)
     640:	00178713          	addi	a4,a5,1
     644:	000077b7          	lui	a5,0x7
     648:	01878793          	addi	a5,a5,24 # 7018 <results_array>
     64c:	02e7ac23          	sw	a4,56(a5)
     650:	000077b7          	lui	a5,0x7
     654:	01878793          	addi	a5,a5,24 # 7018 <results_array>
     658:	0347a783          	lw	a5,52(a5)
     65c:	00178713          	addi	a4,a5,1
     660:	000077b7          	lui	a5,0x7
     664:	01878793          	addi	a5,a5,24 # 7018 <results_array>
     668:	02e7aa23          	sw	a4,52(a5)
     66c:	000077b7          	lui	a5,0x7
     670:	01878793          	addi	a5,a5,24 # 7018 <results_array>
     674:	fe442703          	lw	a4,-28(s0)
     678:	02e7a423          	sw	a4,40(a5)
     67c:	000077b7          	lui	a5,0x7
     680:	01878793          	addi	a5,a5,24 # 7018 <results_array>
     684:	fe842703          	lw	a4,-24(s0)
     688:	02e7a623          	sw	a4,44(a5)
     68c:	000077b7          	lui	a5,0x7
     690:	01878793          	addi	a5,a5,24 # 7018 <results_array>
     694:	fe842703          	lw	a4,-24(s0)
     698:	02e7a823          	sw	a4,48(a5)
     69c:	fe442783          	lw	a5,-28(s0)
     6a0:	00178793          	addi	a5,a5,1
     6a4:	fef42223          	sw	a5,-28(s0)
     6a8:	fe442703          	lw	a4,-28(s0)
     6ac:	00b00793          	li	a5,11
     6b0:	e6e7dce3          	bge	a5,a4,528 <main+0x4e4>
     6b4:	fdc42783          	lw	a5,-36(s0)
     6b8:	00178793          	addi	a5,a5,1
     6bc:	fcf42e23          	sw	a5,-36(s0)
     6c0:	fdc42703          	lw	a4,-36(s0)
     6c4:	00b00793          	li	a5,11
     6c8:	d0e7dee3          	bge	a5,a4,3e4 <main+0x3a0>
     6cc:	0080006f          	j	6d4 <main+0x690>
     6d0:	00000013          	nop
     6d4:	a3442703          	lw	a4,-1484(s0)
     6d8:	ffffe7b7          	lui	a5,0xffffe
     6dc:	ff078793          	addi	a5,a5,-16 # ffffdff0 <__stack_top+0xffff5ff4>
     6e0:	008787b3          	add	a5,a5,s0
     6e4:	26e7a223          	sw	a4,612(a5)
     6e8:	ffffe7b7          	lui	a5,0xffffe
     6ec:	ff078793          	addi	a5,a5,-16 # ffffdff0 <__stack_top+0xffff5ff4>
     6f0:	008787b3          	add	a5,a5,s0
     6f4:	2647a783          	lw	a5,612(a5)
     6f8:	fec42703          	lw	a4,-20(s0)
     6fc:	00f707b3          	add	a5,a4,a5
     700:	fef42623          	sw	a5,-20(s0)
     704:	a3442703          	lw	a4,-1484(s0)
     708:	000077b7          	lui	a5,0x7
     70c:	01878793          	addi	a5,a5,24 # 7018 <results_array>
     710:	02e7a423          	sw	a4,40(a5)
     714:	a2442703          	lw	a4,-1500(s0)
     718:	000077b7          	lui	a5,0x7
     71c:	01878793          	addi	a5,a5,24 # 7018 <results_array>
     720:	02e7a623          	sw	a4,44(a5)
     724:	000077b7          	lui	a5,0x7
     728:	01878793          	addi	a5,a5,24 # 7018 <results_array>
     72c:	fe842703          	lw	a4,-24(s0)
     730:	02e7a823          	sw	a4,48(a5)
     734:	ffffe7b7          	lui	a5,0xffffe
     738:	ff078793          	addi	a5,a5,-16 # ffffdff0 <__stack_top+0xffff5ff4>
     73c:	008787b3          	add	a5,a5,s0
     740:	23c7a703          	lw	a4,572(a5)
     744:	000077b7          	lui	a5,0x7
     748:	01878793          	addi	a5,a5,24 # 7018 <results_array>
     74c:	02e7aa23          	sw	a4,52(a5)
     750:	fe042223          	sw	zero,-28(s0)
     754:	04c0006f          	j	7a0 <main+0x75c>
     758:	fffff7b7          	lui	a5,0xfffff
     75c:	ff078793          	addi	a5,a5,-16 # ffffeff0 <__stack_top+0xffff6ff4>
     760:	00878733          	add	a4,a5,s0
     764:	fe442783          	lw	a5,-28(s0)
     768:	00279793          	slli	a5,a5,0x2
     76c:	00f707b3          	add	a5,a4,a5
     770:	7a07a423          	sw	zero,1960(a5)
     774:	fffff7b7          	lui	a5,0xfffff
     778:	ff078793          	addi	a5,a5,-16 # ffffeff0 <__stack_top+0xffff6ff4>
     77c:	00878733          	add	a4,a5,s0
     780:	fe442783          	lw	a5,-28(s0)
     784:	00279793          	slli	a5,a5,0x2
     788:	00f707b3          	add	a5,a4,a5
     78c:	fff00713          	li	a4,-1
     790:	6ce7ac23          	sw	a4,1752(a5)
     794:	fe442783          	lw	a5,-28(s0)
     798:	00178793          	addi	a5,a5,1
     79c:	fef42223          	sw	a5,-28(s0)
     7a0:	fe442703          	lw	a4,-28(s0)
     7a4:	00b00793          	li	a5,11
     7a8:	fae7d8e3          	bge	a5,a4,758 <main+0x714>
     7ac:	00b00793          	li	a5,11
     7b0:	fcf42823          	sw	a5,-48(s0)
     7b4:	fc042623          	sw	zero,-52(s0)
     7b8:	fe042223          	sw	zero,-28(s0)
     7bc:	1f80006f          	j	9b4 <main+0x970>
     7c0:	fffff7b7          	lui	a5,0xfffff
     7c4:	ff078793          	addi	a5,a5,-16 # ffffeff0 <__stack_top+0xffff6ff4>
     7c8:	00878733          	add	a4,a5,s0
     7cc:	fe442783          	lw	a5,-28(s0)
     7d0:	00279793          	slli	a5,a5,0x2
     7d4:	00f707b3          	add	a5,a4,a5
     7d8:	7a87a783          	lw	a5,1960(a5)
     7dc:	1c079663          	bnez	a5,9a8 <main+0x964>
     7e0:	fffff7b7          	lui	a5,0xfffff
     7e4:	ff078793          	addi	a5,a5,-16 # ffffeff0 <__stack_top+0xffff6ff4>
     7e8:	00878733          	add	a4,a5,s0
     7ec:	fcc42783          	lw	a5,-52(s0)
     7f0:	00279793          	slli	a5,a5,0x2
     7f4:	00f707b3          	add	a5,a4,a5
     7f8:	fe442703          	lw	a4,-28(s0)
     7fc:	74e7ac23          	sw	a4,1880(a5)
     800:	fcc42783          	lw	a5,-52(s0)
     804:	00178793          	addi	a5,a5,1
     808:	fcf42623          	sw	a5,-52(s0)
     80c:	1940006f          	j	9a0 <main+0x95c>
     810:	fcc42783          	lw	a5,-52(s0)
     814:	fff78793          	addi	a5,a5,-1
     818:	fcf42623          	sw	a5,-52(s0)
     81c:	fffff7b7          	lui	a5,0xfffff
     820:	ff078793          	addi	a5,a5,-16 # ffffeff0 <__stack_top+0xffff6ff4>
     824:	00878733          	add	a4,a5,s0
     828:	fcc42783          	lw	a5,-52(s0)
     82c:	00279793          	slli	a5,a5,0x2
     830:	00f707b3          	add	a5,a4,a5
     834:	7587a783          	lw	a5,1880(a5)
     838:	e8f42423          	sw	a5,-376(s0)
     83c:	fffff7b7          	lui	a5,0xfffff
     840:	ff078793          	addi	a5,a5,-16 # ffffeff0 <__stack_top+0xffff6ff4>
     844:	00878733          	add	a4,a5,s0
     848:	e8842783          	lw	a5,-376(s0)
     84c:	00279793          	slli	a5,a5,0x2
     850:	00f707b3          	add	a5,a4,a5
     854:	7a87a783          	lw	a5,1960(a5)
     858:	14079463          	bnez	a5,9a0 <main+0x95c>
     85c:	fffff7b7          	lui	a5,0xfffff
     860:	ff078793          	addi	a5,a5,-16 # ffffeff0 <__stack_top+0xffff6ff4>
     864:	00878733          	add	a4,a5,s0
     868:	e8842783          	lw	a5,-376(s0)
     86c:	00279793          	slli	a5,a5,0x2
     870:	00f707b3          	add	a5,a4,a5
     874:	00100713          	li	a4,1
     878:	7ae7a423          	sw	a4,1960(a5)
     87c:	ffffe7b7          	lui	a5,0xffffe
     880:	ff078793          	addi	a5,a5,-16 # ffffdff0 <__stack_top+0xffff5ff4>
     884:	008787b3          	add	a5,a5,s0
     888:	2407a783          	lw	a5,576(a5)
     88c:	00178713          	addi	a4,a5,1
     890:	ffffe7b7          	lui	a5,0xffffe
     894:	ff078793          	addi	a5,a5,-16 # ffffdff0 <__stack_top+0xffff5ff4>
     898:	008787b3          	add	a5,a5,s0
     89c:	24e7a023          	sw	a4,576(a5)
     8a0:	fffff7b7          	lui	a5,0xfffff
     8a4:	ff078793          	addi	a5,a5,-16 # ffffeff0 <__stack_top+0xffff6ff4>
     8a8:	00878733          	add	a4,a5,s0
     8ac:	fd042783          	lw	a5,-48(s0)
     8b0:	00279793          	slli	a5,a5,0x2
     8b4:	00f707b3          	add	a5,a4,a5
     8b8:	e8842703          	lw	a4,-376(s0)
     8bc:	6ce7ac23          	sw	a4,1752(a5)
     8c0:	fd042783          	lw	a5,-48(s0)
     8c4:	fff78793          	addi	a5,a5,-1
     8c8:	fcf42823          	sw	a5,-48(s0)
     8cc:	00b00793          	li	a5,11
     8d0:	fef42023          	sw	a5,-32(s0)
     8d4:	0980006f          	j	96c <main+0x928>
     8d8:	e8842703          	lw	a4,-376(s0)
     8dc:	00070793          	mv	a5,a4
     8e0:	00179793          	slli	a5,a5,0x1
     8e4:	00e787b3          	add	a5,a5,a4
     8e8:	00279793          	slli	a5,a5,0x2
     8ec:	fe042703          	lw	a4,-32(s0)
     8f0:	00e78733          	add	a4,a5,a4
     8f4:	c4840793          	addi	a5,s0,-952
     8f8:	00271713          	slli	a4,a4,0x2
     8fc:	00f707b3          	add	a5,a4,a5
     900:	0007a783          	lw	a5,0(a5)
     904:	04f05e63          	blez	a5,960 <main+0x91c>
     908:	fffff7b7          	lui	a5,0xfffff
     90c:	ff078793          	addi	a5,a5,-16 # ffffeff0 <__stack_top+0xffff6ff4>
     910:	00878733          	add	a4,a5,s0
     914:	fe042783          	lw	a5,-32(s0)
     918:	00279793          	slli	a5,a5,0x2
     91c:	00f707b3          	add	a5,a4,a5
     920:	7a87a783          	lw	a5,1960(a5)
     924:	02079e63          	bnez	a5,960 <main+0x91c>
     928:	fcc42703          	lw	a4,-52(s0)
     92c:	01200793          	li	a5,18
     930:	02e7c863          	blt	a5,a4,960 <main+0x91c>
     934:	fffff7b7          	lui	a5,0xfffff
     938:	ff078793          	addi	a5,a5,-16 # ffffeff0 <__stack_top+0xffff6ff4>
     93c:	00878733          	add	a4,a5,s0
     940:	fcc42783          	lw	a5,-52(s0)
     944:	00279793          	slli	a5,a5,0x2
     948:	00f707b3          	add	a5,a4,a5
     94c:	fe042703          	lw	a4,-32(s0)
     950:	74e7ac23          	sw	a4,1880(a5)
     954:	fcc42783          	lw	a5,-52(s0)
     958:	00178793          	addi	a5,a5,1
     95c:	fcf42623          	sw	a5,-52(s0)
     960:	fe042783          	lw	a5,-32(s0)
     964:	fff78793          	addi	a5,a5,-1
     968:	fef42023          	sw	a5,-32(s0)
     96c:	fe042783          	lw	a5,-32(s0)
     970:	f607d4e3          	bgez	a5,8d8 <main+0x894>
     974:	e8842703          	lw	a4,-376(s0)
     978:	00070793          	mv	a5,a4
     97c:	00379793          	slli	a5,a5,0x3
     980:	40e78733          	sub	a4,a5,a4
     984:	fe842783          	lw	a5,-24(s0)
     988:	00f707b3          	add	a5,a4,a5
     98c:	18d00593          	li	a1,397
     990:	00078513          	mv	a0,a5
     994:	495030ef          	jal	4628 <__modsi3>
     998:	00050793          	mv	a5,a0
     99c:	fef42423          	sw	a5,-24(s0)
     9a0:	fcc42783          	lw	a5,-52(s0)
     9a4:	e6f046e3          	bgtz	a5,810 <main+0x7cc>
     9a8:	fe442783          	lw	a5,-28(s0)
     9ac:	00178793          	addi	a5,a5,1
     9b0:	fef42223          	sw	a5,-28(s0)
     9b4:	fe442703          	lw	a4,-28(s0)
     9b8:	00b00793          	li	a5,11
     9bc:	e0e7d2e3          	bge	a5,a4,7c0 <main+0x77c>
     9c0:	fffff7b7          	lui	a5,0xfffff
     9c4:	ff078793          	addi	a5,a5,-16 # ffffeff0 <__stack_top+0xffff6ff4>
     9c8:	008787b3          	add	a5,a5,s0
     9cc:	6d87a703          	lw	a4,1752(a5)
     9d0:	ffffe7b7          	lui	a5,0xffffe
     9d4:	ff078793          	addi	a5,a5,-16 # ffffdff0 <__stack_top+0xffff5ff4>
     9d8:	008787b3          	add	a5,a5,s0
     9dc:	26e7a423          	sw	a4,616(a5)
     9e0:	ffffe7b7          	lui	a5,0xffffe
     9e4:	ff078793          	addi	a5,a5,-16 # ffffdff0 <__stack_top+0xffff5ff4>
     9e8:	008787b3          	add	a5,a5,s0
     9ec:	2687a703          	lw	a4,616(a5)
     9f0:	00070793          	mv	a5,a4
     9f4:	00179793          	slli	a5,a5,0x1
     9f8:	00e787b3          	add	a5,a5,a4
     9fc:	fec42703          	lw	a4,-20(s0)
     a00:	00f707b3          	add	a5,a4,a5
     a04:	fef42623          	sw	a5,-20(s0)
     a08:	fffff7b7          	lui	a5,0xfffff
     a0c:	ff078793          	addi	a5,a5,-16 # ffffeff0 <__stack_top+0xffff6ff4>
     a10:	008787b3          	add	a5,a5,s0
     a14:	6d87a703          	lw	a4,1752(a5)
     a18:	000077b7          	lui	a5,0x7
     a1c:	01878793          	addi	a5,a5,24 # 7018 <results_array>
     a20:	02e7ac23          	sw	a4,56(a5)
     a24:	fffff7b7          	lui	a5,0xfffff
     a28:	ff078793          	addi	a5,a5,-16 # ffffeff0 <__stack_top+0xffff6ff4>
     a2c:	008787b3          	add	a5,a5,s0
     a30:	6ec7a703          	lw	a4,1772(a5)
     a34:	000077b7          	lui	a5,0x7
     a38:	01878793          	addi	a5,a5,24 # 7018 <results_array>
     a3c:	02e7ae23          	sw	a4,60(a5)
     a40:	ffffe7b7          	lui	a5,0xffffe
     a44:	ff078793          	addi	a5,a5,-16 # ffffdff0 <__stack_top+0xffff5ff4>
     a48:	008787b3          	add	a5,a5,s0
     a4c:	2407a703          	lw	a4,576(a5)
     a50:	000077b7          	lui	a5,0x7
     a54:	01878793          	addi	a5,a5,24 # 7018 <results_array>
     a58:	04e7a023          	sw	a4,64(a5)
     a5c:	000077b7          	lui	a5,0x7
     a60:	01878793          	addi	a5,a5,24 # 7018 <results_array>
     a64:	fe842703          	lw	a4,-24(s0)
     a68:	04e7a223          	sw	a4,68(a5)
     a6c:	fe042223          	sw	zero,-28(s0)
     a70:	0680006f          	j	ad8 <main+0xa94>
     a74:	fe042023          	sw	zero,-32(s0)
     a78:	0480006f          	j	ac0 <main+0xa7c>
     a7c:	fffff7b7          	lui	a5,0xfffff
     a80:	ff078793          	addi	a5,a5,-16 # ffffeff0 <__stack_top+0xffff6ff4>
     a84:	008786b3          	add	a3,a5,s0
     a88:	fe442703          	lw	a4,-28(s0)
     a8c:	00070793          	mv	a5,a4
     a90:	00179793          	slli	a5,a5,0x1
     a94:	00e787b3          	add	a5,a5,a4
     a98:	00379793          	slli	a5,a5,0x3
     a9c:	00e787b3          	add	a5,a5,a4
     aa0:	fe042703          	lw	a4,-32(s0)
     aa4:	00e787b3          	add	a5,a5,a4
     aa8:	00279793          	slli	a5,a5,0x2
     aac:	00f687b3          	add	a5,a3,a5
     ab0:	0e07ae23          	sw	zero,252(a5)
     ab4:	fe042783          	lw	a5,-32(s0)
     ab8:	00178793          	addi	a5,a5,1
     abc:	fef42023          	sw	a5,-32(s0)
     ac0:	fe042703          	lw	a4,-32(s0)
     ac4:	01800793          	li	a5,24
     ac8:	fae7dae3          	bge	a5,a4,a7c <main+0xa38>
     acc:	fe442783          	lw	a5,-28(s0)
     ad0:	00178793          	addi	a5,a5,1
     ad4:	fef42223          	sw	a5,-28(s0)
     ad8:	fe442703          	lw	a4,-28(s0)
     adc:	00e00793          	li	a5,14
     ae0:	f8e7dae3          	bge	a5,a4,a74 <main+0xa30>
     ae4:	ffffe7b7          	lui	a5,0xffffe
     ae8:	ff078793          	addi	a5,a5,-16 # ffffdff0 <__stack_top+0xffff5ff4>
     aec:	008787b3          	add	a5,a5,s0
     af0:	00200713          	li	a4,2
     af4:	1ee7a223          	sw	a4,484(a5)
     af8:	ffffe7b7          	lui	a5,0xffffe
     afc:	ff078793          	addi	a5,a5,-16 # ffffdff0 <__stack_top+0xffff5ff4>
     b00:	008787b3          	add	a5,a5,s0
     b04:	00300713          	li	a4,3
     b08:	1ae7a623          	sw	a4,428(a5)
     b0c:	ffffe7b7          	lui	a5,0xffffe
     b10:	ff078793          	addi	a5,a5,-16 # ffffdff0 <__stack_top+0xffff5ff4>
     b14:	008787b3          	add	a5,a5,s0
     b18:	00300713          	li	a4,3
     b1c:	1ee7a423          	sw	a4,488(a5)
     b20:	ffffe7b7          	lui	a5,0xffffe
     b24:	ff078793          	addi	a5,a5,-16 # ffffdff0 <__stack_top+0xffff5ff4>
     b28:	008787b3          	add	a5,a5,s0
     b2c:	00400713          	li	a4,4
     b30:	1ae7a823          	sw	a4,432(a5)
     b34:	ffffe7b7          	lui	a5,0xffffe
     b38:	ff078793          	addi	a5,a5,-16 # ffffdff0 <__stack_top+0xffff5ff4>
     b3c:	008787b3          	add	a5,a5,s0
     b40:	00400713          	li	a4,4
     b44:	1ee7a623          	sw	a4,492(a5)
     b48:	ffffe7b7          	lui	a5,0xffffe
     b4c:	ff078793          	addi	a5,a5,-16 # ffffdff0 <__stack_top+0xffff5ff4>
     b50:	008787b3          	add	a5,a5,s0
     b54:	00700713          	li	a4,7
     b58:	1ae7aa23          	sw	a4,436(a5)
     b5c:	ffffe7b7          	lui	a5,0xffffe
     b60:	ff078793          	addi	a5,a5,-16 # ffffdff0 <__stack_top+0xffff5ff4>
     b64:	008787b3          	add	a5,a5,s0
     b68:	00500713          	li	a4,5
     b6c:	1ee7a823          	sw	a4,496(a5)
     b70:	ffffe7b7          	lui	a5,0xffffe
     b74:	ff078793          	addi	a5,a5,-16 # ffffdff0 <__stack_top+0xffff5ff4>
     b78:	008787b3          	add	a5,a5,s0
     b7c:	00800713          	li	a4,8
     b80:	1ae7ac23          	sw	a4,440(a5)
     b84:	ffffe7b7          	lui	a5,0xffffe
     b88:	ff078793          	addi	a5,a5,-16 # ffffdff0 <__stack_top+0xffff5ff4>
     b8c:	008787b3          	add	a5,a5,s0
     b90:	00600713          	li	a4,6
     b94:	1ee7aa23          	sw	a4,500(a5)
     b98:	ffffe7b7          	lui	a5,0xffffe
     b9c:	ff078793          	addi	a5,a5,-16 # ffffdff0 <__stack_top+0xffff5ff4>
     ba0:	008787b3          	add	a5,a5,s0
     ba4:	00900713          	li	a4,9
     ba8:	1ae7ae23          	sw	a4,444(a5)
     bac:	ffffe7b7          	lui	a5,0xffffe
     bb0:	ff078793          	addi	a5,a5,-16 # ffffdff0 <__stack_top+0xffff5ff4>
     bb4:	008787b3          	add	a5,a5,s0
     bb8:	00700713          	li	a4,7
     bbc:	1ee7ac23          	sw	a4,504(a5)
     bc0:	ffffe7b7          	lui	a5,0xffffe
     bc4:	ff078793          	addi	a5,a5,-16 # ffffdff0 <__stack_top+0xffff5ff4>
     bc8:	008787b3          	add	a5,a5,s0
     bcc:	00b00713          	li	a4,11
     bd0:	1ce7a023          	sw	a4,448(a5)
     bd4:	ffffe7b7          	lui	a5,0xffffe
     bd8:	ff078793          	addi	a5,a5,-16 # ffffdff0 <__stack_top+0xffff5ff4>
     bdc:	008787b3          	add	a5,a5,s0
     be0:	00800713          	li	a4,8
     be4:	1ee7ae23          	sw	a4,508(a5)
     be8:	ffffe7b7          	lui	a5,0xffffe
     bec:	ff078793          	addi	a5,a5,-16 # ffffdff0 <__stack_top+0xffff5ff4>
     bf0:	008787b3          	add	a5,a5,s0
     bf4:	00e00713          	li	a4,14
     bf8:	1ce7a223          	sw	a4,452(a5)
     bfc:	ffffe7b7          	lui	a5,0xffffe
     c00:	ff078793          	addi	a5,a5,-16 # ffffdff0 <__stack_top+0xffff5ff4>
     c04:	008787b3          	add	a5,a5,s0
     c08:	00900713          	li	a4,9
     c0c:	20e7a023          	sw	a4,512(a5)
     c10:	ffffe7b7          	lui	a5,0xffffe
     c14:	ff078793          	addi	a5,a5,-16 # ffffdff0 <__stack_top+0xffff5ff4>
     c18:	008787b3          	add	a5,a5,s0
     c1c:	01000713          	li	a4,16
     c20:	1ce7a423          	sw	a4,456(a5)
     c24:	ffffe7b7          	lui	a5,0xffffe
     c28:	ff078793          	addi	a5,a5,-16 # ffffdff0 <__stack_top+0xffff5ff4>
     c2c:	008787b3          	add	a5,a5,s0
     c30:	00a00713          	li	a4,10
     c34:	20e7a223          	sw	a4,516(a5)
     c38:	ffffe7b7          	lui	a5,0xffffe
     c3c:	ff078793          	addi	a5,a5,-16 # ffffdff0 <__stack_top+0xffff5ff4>
     c40:	008787b3          	add	a5,a5,s0
     c44:	01300713          	li	a4,19
     c48:	1ce7a623          	sw	a4,460(a5)
     c4c:	ffffe7b7          	lui	a5,0xffffe
     c50:	ff078793          	addi	a5,a5,-16 # ffffdff0 <__stack_top+0xffff5ff4>
     c54:	008787b3          	add	a5,a5,s0
     c58:	00300713          	li	a4,3
     c5c:	20e7a423          	sw	a4,520(a5)
     c60:	ffffe7b7          	lui	a5,0xffffe
     c64:	ff078793          	addi	a5,a5,-16 # ffffdff0 <__stack_top+0xffff5ff4>
     c68:	008787b3          	add	a5,a5,s0
     c6c:	00500713          	li	a4,5
     c70:	1ce7a823          	sw	a4,464(a5)
     c74:	ffffe7b7          	lui	a5,0xffffe
     c78:	ff078793          	addi	a5,a5,-16 # ffffdff0 <__stack_top+0xffff5ff4>
     c7c:	008787b3          	add	a5,a5,s0
     c80:	00400713          	li	a4,4
     c84:	20e7a623          	sw	a4,524(a5)
     c88:	ffffe7b7          	lui	a5,0xffffe
     c8c:	ff078793          	addi	a5,a5,-16 # ffffdff0 <__stack_top+0xffff5ff4>
     c90:	008787b3          	add	a5,a5,s0
     c94:	00600713          	li	a4,6
     c98:	1ce7aa23          	sw	a4,468(a5)
     c9c:	ffffe7b7          	lui	a5,0xffffe
     ca0:	ff078793          	addi	a5,a5,-16 # ffffdff0 <__stack_top+0xffff5ff4>
     ca4:	008787b3          	add	a5,a5,s0
     ca8:	00500713          	li	a4,5
     cac:	20e7a823          	sw	a4,528(a5)
     cb0:	ffffe7b7          	lui	a5,0xffffe
     cb4:	ff078793          	addi	a5,a5,-16 # ffffdff0 <__stack_top+0xffff5ff4>
     cb8:	008787b3          	add	a5,a5,s0
     cbc:	00900713          	li	a4,9
     cc0:	1ce7ac23          	sw	a4,472(a5)
     cc4:	ffffe7b7          	lui	a5,0xffffe
     cc8:	ff078793          	addi	a5,a5,-16 # ffffdff0 <__stack_top+0xffff5ff4>
     ccc:	008787b3          	add	a5,a5,s0
     cd0:	00600713          	li	a4,6
     cd4:	20e7aa23          	sw	a4,532(a5)
     cd8:	ffffe7b7          	lui	a5,0xffffe
     cdc:	ff078793          	addi	a5,a5,-16 # ffffdff0 <__stack_top+0xffff5ff4>
     ce0:	008787b3          	add	a5,a5,s0
     ce4:	00a00713          	li	a4,10
     ce8:	1ce7ae23          	sw	a4,476(a5)
     cec:	ffffe7b7          	lui	a5,0xffffe
     cf0:	ff078793          	addi	a5,a5,-16 # ffffdff0 <__stack_top+0xffff5ff4>
     cf4:	008787b3          	add	a5,a5,s0
     cf8:	00700713          	li	a4,7
     cfc:	20e7ac23          	sw	a4,536(a5)
     d00:	ffffe7b7          	lui	a5,0xffffe
     d04:	ff078793          	addi	a5,a5,-16 # ffffdff0 <__stack_top+0xffff5ff4>
     d08:	008787b3          	add	a5,a5,s0
     d0c:	00c00713          	li	a4,12
     d10:	1ee7a023          	sw	a4,480(a5)
     d14:	01800793          	li	a5,24
     d18:	f2f42223          	sw	a5,-220(s0)
     d1c:	00100793          	li	a5,1
     d20:	fef42223          	sw	a5,-28(s0)
     d24:	29c0006f          	j	fc0 <main+0xf7c>
     d28:	00100793          	li	a5,1
     d2c:	fef42023          	sw	a5,-32(s0)
     d30:	2780006f          	j	fa8 <main+0xf64>
     d34:	fe442783          	lw	a5,-28(s0)
     d38:	fff78793          	addi	a5,a5,-1
     d3c:	ffffe737          	lui	a4,0xffffe
     d40:	ff070713          	addi	a4,a4,-16 # ffffdff0 <__stack_top+0xffff5ff4>
     d44:	00870733          	add	a4,a4,s0
     d48:	00279793          	slli	a5,a5,0x2
     d4c:	00f707b3          	add	a5,a4,a5
     d50:	1e47a783          	lw	a5,484(a5)
     d54:	fe042703          	lw	a4,-32(s0)
     d58:	14f74c63          	blt	a4,a5,eb0 <main+0xe6c>
     d5c:	fe442783          	lw	a5,-28(s0)
     d60:	fff78793          	addi	a5,a5,-1
     d64:	ffffe737          	lui	a4,0xffffe
     d68:	ff070713          	addi	a4,a4,-16 # ffffdff0 <__stack_top+0xffff5ff4>
     d6c:	00870733          	add	a4,a4,s0
     d70:	00279793          	slli	a5,a5,0x2
     d74:	00f707b3          	add	a5,a4,a5
     d78:	1ac7a683          	lw	a3,428(a5)
     d7c:	fe442783          	lw	a5,-28(s0)
     d80:	fff78713          	addi	a4,a5,-1
     d84:	fe442783          	lw	a5,-28(s0)
     d88:	fff78793          	addi	a5,a5,-1
     d8c:	ffffe637          	lui	a2,0xffffe
     d90:	ff060613          	addi	a2,a2,-16 # ffffdff0 <__stack_top+0xffff5ff4>
     d94:	00860633          	add	a2,a2,s0
     d98:	00279793          	slli	a5,a5,0x2
     d9c:	00f607b3          	add	a5,a2,a5
     da0:	1e47a783          	lw	a5,484(a5)
     da4:	fe042603          	lw	a2,-32(s0)
     da8:	40f605b3          	sub	a1,a2,a5
     dac:	fffff7b7          	lui	a5,0xfffff
     db0:	ff078793          	addi	a5,a5,-16 # ffffeff0 <__stack_top+0xffff6ff4>
     db4:	00878633          	add	a2,a5,s0
     db8:	00070793          	mv	a5,a4
     dbc:	00179793          	slli	a5,a5,0x1
     dc0:	00e787b3          	add	a5,a5,a4
     dc4:	00379793          	slli	a5,a5,0x3
     dc8:	00e787b3          	add	a5,a5,a4
     dcc:	00b787b3          	add	a5,a5,a1
     dd0:	00279793          	slli	a5,a5,0x2
     dd4:	00f607b3          	add	a5,a2,a5
     dd8:	0fc7a783          	lw	a5,252(a5)
     ddc:	00f687b3          	add	a5,a3,a5
     de0:	e8f42823          	sw	a5,-368(s0)
     de4:	fe442783          	lw	a5,-28(s0)
     de8:	fff78713          	addi	a4,a5,-1
     dec:	fffff7b7          	lui	a5,0xfffff
     df0:	ff078793          	addi	a5,a5,-16 # ffffeff0 <__stack_top+0xffff6ff4>
     df4:	008786b3          	add	a3,a5,s0
     df8:	00070793          	mv	a5,a4
     dfc:	00179793          	slli	a5,a5,0x1
     e00:	00e787b3          	add	a5,a5,a4
     e04:	00379793          	slli	a5,a5,0x3
     e08:	00e787b3          	add	a5,a5,a4
     e0c:	fe042703          	lw	a4,-32(s0)
     e10:	00e787b3          	add	a5,a5,a4
     e14:	00279793          	slli	a5,a5,0x2
     e18:	00f687b3          	add	a5,a3,a5
     e1c:	0fc7a783          	lw	a5,252(a5)
     e20:	e8f42623          	sw	a5,-372(s0)
     e24:	e9042703          	lw	a4,-368(s0)
     e28:	e8c42783          	lw	a5,-372(s0)
     e2c:	04e7d263          	bge	a5,a4,e70 <main+0xe2c>
     e30:	fffff7b7          	lui	a5,0xfffff
     e34:	ff078793          	addi	a5,a5,-16 # ffffeff0 <__stack_top+0xffff6ff4>
     e38:	008786b3          	add	a3,a5,s0
     e3c:	fe442703          	lw	a4,-28(s0)
     e40:	00070793          	mv	a5,a4
     e44:	00179793          	slli	a5,a5,0x1
     e48:	00e787b3          	add	a5,a5,a4
     e4c:	00379793          	slli	a5,a5,0x3
     e50:	00e787b3          	add	a5,a5,a4
     e54:	fe042703          	lw	a4,-32(s0)
     e58:	00e787b3          	add	a5,a5,a4
     e5c:	00279793          	slli	a5,a5,0x2
     e60:	00f687b3          	add	a5,a3,a5
     e64:	e9042703          	lw	a4,-368(s0)
     e68:	0ee7ae23          	sw	a4,252(a5)
     e6c:	0b80006f          	j	f24 <main+0xee0>
     e70:	fffff7b7          	lui	a5,0xfffff
     e74:	ff078793          	addi	a5,a5,-16 # ffffeff0 <__stack_top+0xffff6ff4>
     e78:	008786b3          	add	a3,a5,s0
     e7c:	fe442703          	lw	a4,-28(s0)
     e80:	00070793          	mv	a5,a4
     e84:	00179793          	slli	a5,a5,0x1
     e88:	00e787b3          	add	a5,a5,a4
     e8c:	00379793          	slli	a5,a5,0x3
     e90:	00e787b3          	add	a5,a5,a4
     e94:	fe042703          	lw	a4,-32(s0)
     e98:	00e787b3          	add	a5,a5,a4
     e9c:	00279793          	slli	a5,a5,0x2
     ea0:	00f687b3          	add	a5,a3,a5
     ea4:	e8c42703          	lw	a4,-372(s0)
     ea8:	0ee7ae23          	sw	a4,252(a5)
     eac:	0780006f          	j	f24 <main+0xee0>
     eb0:	fe442783          	lw	a5,-28(s0)
     eb4:	fff78713          	addi	a4,a5,-1
     eb8:	fffff7b7          	lui	a5,0xfffff
     ebc:	ff078793          	addi	a5,a5,-16 # ffffeff0 <__stack_top+0xffff6ff4>
     ec0:	008786b3          	add	a3,a5,s0
     ec4:	00070793          	mv	a5,a4
     ec8:	00179793          	slli	a5,a5,0x1
     ecc:	00e787b3          	add	a5,a5,a4
     ed0:	00379793          	slli	a5,a5,0x3
     ed4:	00e787b3          	add	a5,a5,a4
     ed8:	fe042703          	lw	a4,-32(s0)
     edc:	00e787b3          	add	a5,a5,a4
     ee0:	00279793          	slli	a5,a5,0x2
     ee4:	00f687b3          	add	a5,a3,a5
     ee8:	0fc7a683          	lw	a3,252(a5)
     eec:	fffff7b7          	lui	a5,0xfffff
     ef0:	ff078793          	addi	a5,a5,-16 # ffffeff0 <__stack_top+0xffff6ff4>
     ef4:	00878633          	add	a2,a5,s0
     ef8:	fe442703          	lw	a4,-28(s0)
     efc:	00070793          	mv	a5,a4
     f00:	00179793          	slli	a5,a5,0x1
     f04:	00e787b3          	add	a5,a5,a4
     f08:	00379793          	slli	a5,a5,0x3
     f0c:	00e787b3          	add	a5,a5,a4
     f10:	fe042703          	lw	a4,-32(s0)
     f14:	00e787b3          	add	a5,a5,a4
     f18:	00279793          	slli	a5,a5,0x2
     f1c:	00f607b3          	add	a5,a2,a5
     f20:	0ed7ae23          	sw	a3,252(a5)
     f24:	ffffe7b7          	lui	a5,0xffffe
     f28:	ff078793          	addi	a5,a5,-16 # ffffdff0 <__stack_top+0xffff5ff4>
     f2c:	008787b3          	add	a5,a5,s0
     f30:	2447a783          	lw	a5,580(a5)
     f34:	00178713          	addi	a4,a5,1
     f38:	ffffe7b7          	lui	a5,0xffffe
     f3c:	ff078793          	addi	a5,a5,-16 # ffffdff0 <__stack_top+0xffff5ff4>
     f40:	008787b3          	add	a5,a5,s0
     f44:	24e7a223          	sw	a4,580(a5)
     f48:	fffff7b7          	lui	a5,0xfffff
     f4c:	ff078793          	addi	a5,a5,-16 # ffffeff0 <__stack_top+0xffff6ff4>
     f50:	008786b3          	add	a3,a5,s0
     f54:	fe442703          	lw	a4,-28(s0)
     f58:	00070793          	mv	a5,a4
     f5c:	00179793          	slli	a5,a5,0x1
     f60:	00e787b3          	add	a5,a5,a4
     f64:	00379793          	slli	a5,a5,0x3
     f68:	00e787b3          	add	a5,a5,a4
     f6c:	fe042703          	lw	a4,-32(s0)
     f70:	00e787b3          	add	a5,a5,a4
     f74:	00279793          	slli	a5,a5,0x2
     f78:	00f687b3          	add	a5,a3,a5
     f7c:	0fc7a703          	lw	a4,252(a5)
     f80:	fe842783          	lw	a5,-24(s0)
     f84:	00f707b3          	add	a5,a4,a5
     f88:	17f00593          	li	a1,383
     f8c:	00078513          	mv	a0,a5
     f90:	698030ef          	jal	4628 <__modsi3>
     f94:	00050793          	mv	a5,a0
     f98:	fef42423          	sw	a5,-24(s0)
     f9c:	fe042783          	lw	a5,-32(s0)
     fa0:	00178793          	addi	a5,a5,1
     fa4:	fef42023          	sw	a5,-32(s0)
     fa8:	fe042703          	lw	a4,-32(s0)
     fac:	01800793          	li	a5,24
     fb0:	d8e7d2e3          	bge	a5,a4,d34 <main+0xcf0>
     fb4:	fe442783          	lw	a5,-28(s0)
     fb8:	00178793          	addi	a5,a5,1
     fbc:	fef42223          	sw	a5,-28(s0)
     fc0:	fe442703          	lw	a4,-28(s0)
     fc4:	00e00793          	li	a5,14
     fc8:	d6e7d0e3          	bge	a5,a4,d28 <main+0xce4>
     fcc:	fffff7b7          	lui	a5,0xfffff
     fd0:	ff078793          	addi	a5,a5,-16 # ffffeff0 <__stack_top+0xffff6ff4>
     fd4:	008787b3          	add	a5,a5,s0
     fd8:	6d47a703          	lw	a4,1748(a5)
     fdc:	ffffe7b7          	lui	a5,0xffffe
     fe0:	ff078793          	addi	a5,a5,-16 # ffffdff0 <__stack_top+0xffff5ff4>
     fe4:	008787b3          	add	a5,a5,s0
     fe8:	26e7a623          	sw	a4,620(a5)
     fec:	ffffe7b7          	lui	a5,0xffffe
     ff0:	ff078793          	addi	a5,a5,-16 # ffffdff0 <__stack_top+0xffff5ff4>
     ff4:	008787b3          	add	a5,a5,s0
     ff8:	26c7a783          	lw	a5,620(a5)
     ffc:	fec42703          	lw	a4,-20(s0)
    1000:	00f707b3          	add	a5,a4,a5
    1004:	fef42623          	sw	a5,-20(s0)
    1008:	fffff7b7          	lui	a5,0xfffff
    100c:	ff078793          	addi	a5,a5,-16 # ffffeff0 <__stack_top+0xffff6ff4>
    1010:	008787b3          	add	a5,a5,s0
    1014:	6d47a703          	lw	a4,1748(a5)
    1018:	000077b7          	lui	a5,0x7
    101c:	01878793          	addi	a5,a5,24 # 7018 <results_array>
    1020:	04e7a423          	sw	a4,72(a5)
    1024:	fffff7b7          	lui	a5,0xfffff
    1028:	ff078793          	addi	a5,a5,-16 # ffffeff0 <__stack_top+0xffff6ff4>
    102c:	008787b3          	add	a5,a5,s0
    1030:	3e87a703          	lw	a4,1000(a5)
    1034:	000077b7          	lui	a5,0x7
    1038:	01878793          	addi	a5,a5,24 # 7018 <results_array>
    103c:	04e7a623          	sw	a4,76(a5)
    1040:	ffffe7b7          	lui	a5,0xffffe
    1044:	ff078793          	addi	a5,a5,-16 # ffffdff0 <__stack_top+0xffff5ff4>
    1048:	008787b3          	add	a5,a5,s0
    104c:	2447a703          	lw	a4,580(a5)
    1050:	000077b7          	lui	a5,0x7
    1054:	01878793          	addi	a5,a5,24 # 7018 <results_array>
    1058:	04e7a823          	sw	a4,80(a5)
    105c:	000077b7          	lui	a5,0x7
    1060:	01878793          	addi	a5,a5,24 # 7018 <results_array>
    1064:	fe842703          	lw	a4,-24(s0)
    1068:	04e7aa23          	sw	a4,84(a5)
    106c:	fe042223          	sw	zero,-28(s0)
    1070:	0640006f          	j	10d4 <main+0x1090>
    1074:	fe042023          	sw	zero,-32(s0)
    1078:	0440006f          	j	10bc <main+0x1078>
    107c:	fffff7b7          	lui	a5,0xfffff
    1080:	ff078793          	addi	a5,a5,-16 # ffffeff0 <__stack_top+0xffff6ff4>
    1084:	008786b3          	add	a3,a5,s0
    1088:	fe442703          	lw	a4,-28(s0)
    108c:	00070793          	mv	a5,a4
    1090:	00279793          	slli	a5,a5,0x2
    1094:	00e787b3          	add	a5,a5,a4
    1098:	00179793          	slli	a5,a5,0x1
    109c:	fe042703          	lw	a4,-32(s0)
    10a0:	00e787b3          	add	a5,a5,a4
    10a4:	00279793          	slli	a5,a5,0x2
    10a8:	00f687b3          	add	a5,a3,a5
    10ac:	f607a623          	sw	zero,-148(a5)
    10b0:	fe042783          	lw	a5,-32(s0)
    10b4:	00178793          	addi	a5,a5,1
    10b8:	fef42023          	sw	a5,-32(s0)
    10bc:	fe042703          	lw	a4,-32(s0)
    10c0:	00900793          	li	a5,9
    10c4:	fae7dce3          	bge	a5,a4,107c <main+0x1038>
    10c8:	fe442783          	lw	a5,-28(s0)
    10cc:	00178793          	addi	a5,a5,1
    10d0:	fef42223          	sw	a5,-28(s0)
    10d4:	fe442703          	lw	a4,-28(s0)
    10d8:	00900793          	li	a5,9
    10dc:	f8e7dce3          	bge	a5,a4,1074 <main+0x1030>
    10e0:	fe042223          	sw	zero,-28(s0)
    10e4:	0a80006f          	j	118c <main+0x1148>
    10e8:	fe442703          	lw	a4,-28(s0)
    10ec:	00070793          	mv	a5,a4
    10f0:	00179793          	slli	a5,a5,0x1
    10f4:	00e787b3          	add	a5,a5,a4
    10f8:	00279793          	slli	a5,a5,0x2
    10fc:	00e787b3          	add	a5,a5,a4
    1100:	00778793          	addi	a5,a5,7
    1104:	01a00593          	li	a1,26
    1108:	00078513          	mv	a0,a5
    110c:	51c030ef          	jal	4628 <__modsi3>
    1110:	00050793          	mv	a5,a0
    1114:	00078693          	mv	a3,a5
    1118:	ffffe7b7          	lui	a5,0xffffe
    111c:	ff078793          	addi	a5,a5,-16 # ffffdff0 <__stack_top+0xffff5ff4>
    1120:	00878733          	add	a4,a5,s0
    1124:	fe442783          	lw	a5,-28(s0)
    1128:	00279793          	slli	a5,a5,0x2
    112c:	00f707b3          	add	a5,a4,a5
    1130:	18d7a423          	sw	a3,392(a5)
    1134:	fe442703          	lw	a4,-28(s0)
    1138:	00070793          	mv	a5,a4
    113c:	00179793          	slli	a5,a5,0x1
    1140:	00e787b3          	add	a5,a5,a4
    1144:	00279793          	slli	a5,a5,0x2
    1148:	40e787b3          	sub	a5,a5,a4
    114c:	00578793          	addi	a5,a5,5
    1150:	01a00593          	li	a1,26
    1154:	00078513          	mv	a0,a5
    1158:	4d0030ef          	jal	4628 <__modsi3>
    115c:	00050793          	mv	a5,a0
    1160:	00078693          	mv	a3,a5
    1164:	ffffe7b7          	lui	a5,0xffffe
    1168:	ff078793          	addi	a5,a5,-16 # ffffdff0 <__stack_top+0xffff5ff4>
    116c:	00878733          	add	a4,a5,s0
    1170:	fe442783          	lw	a5,-28(s0)
    1174:	00279793          	slli	a5,a5,0x2
    1178:	00f707b3          	add	a5,a4,a5
    117c:	16d7a223          	sw	a3,356(a5)
    1180:	fe442783          	lw	a5,-28(s0)
    1184:	00178793          	addi	a5,a5,1
    1188:	fef42223          	sw	a5,-28(s0)
    118c:	fe442703          	lw	a4,-28(s0)
    1190:	00800793          	li	a5,8
    1194:	f4e7dae3          	bge	a5,a4,10e8 <main+0x10a4>
    1198:	fe042223          	sw	zero,-28(s0)
    119c:	05c0006f          	j	11f8 <main+0x11b4>
    11a0:	fffff7b7          	lui	a5,0xfffff
    11a4:	ff078793          	addi	a5,a5,-16 # ffffeff0 <__stack_top+0xffff6ff4>
    11a8:	008786b3          	add	a3,a5,s0
    11ac:	fe442703          	lw	a4,-28(s0)
    11b0:	00070793          	mv	a5,a4
    11b4:	00279793          	slli	a5,a5,0x2
    11b8:	00e787b3          	add	a5,a5,a4
    11bc:	00379793          	slli	a5,a5,0x3
    11c0:	00f687b3          	add	a5,a3,a5
    11c4:	fe442703          	lw	a4,-28(s0)
    11c8:	f6e7a623          	sw	a4,-148(a5)
    11cc:	fffff7b7          	lui	a5,0xfffff
    11d0:	ff078793          	addi	a5,a5,-16 # ffffeff0 <__stack_top+0xffff6ff4>
    11d4:	00878733          	add	a4,a5,s0
    11d8:	fe442783          	lw	a5,-28(s0)
    11dc:	00279793          	slli	a5,a5,0x2
    11e0:	00f707b3          	add	a5,a4,a5
    11e4:	fe442703          	lw	a4,-28(s0)
    11e8:	f6e7a623          	sw	a4,-148(a5)
    11ec:	fe442783          	lw	a5,-28(s0)
    11f0:	00178793          	addi	a5,a5,1
    11f4:	fef42223          	sw	a5,-28(s0)
    11f8:	fe442703          	lw	a4,-28(s0)
    11fc:	00900793          	li	a5,9
    1200:	fae7d0e3          	bge	a5,a4,11a0 <main+0x115c>
    1204:	00100793          	li	a5,1
    1208:	fef42223          	sw	a5,-28(s0)
    120c:	28c0006f          	j	1498 <main+0x1454>
    1210:	00100793          	li	a5,1
    1214:	fef42023          	sw	a5,-32(s0)
    1218:	2680006f          	j	1480 <main+0x143c>
    121c:	fe442783          	lw	a5,-28(s0)
    1220:	fff78793          	addi	a5,a5,-1
    1224:	ffffe737          	lui	a4,0xffffe
    1228:	ff070713          	addi	a4,a4,-16 # ffffdff0 <__stack_top+0xffff5ff4>
    122c:	00870733          	add	a4,a4,s0
    1230:	00279793          	slli	a5,a5,0x2
    1234:	00f707b3          	add	a5,a4,a5
    1238:	1887a703          	lw	a4,392(a5)
    123c:	fe042783          	lw	a5,-32(s0)
    1240:	fff78793          	addi	a5,a5,-1
    1244:	ffffe6b7          	lui	a3,0xffffe
    1248:	ff068693          	addi	a3,a3,-16 # ffffdff0 <__stack_top+0xffff5ff4>
    124c:	008686b3          	add	a3,a3,s0
    1250:	00279793          	slli	a5,a5,0x2
    1254:	00f687b3          	add	a5,a3,a5
    1258:	1647a783          	lw	a5,356(a5)
    125c:	06f71c63          	bne	a4,a5,12d4 <main+0x1290>
    1260:	fe442783          	lw	a5,-28(s0)
    1264:	fff78713          	addi	a4,a5,-1
    1268:	fe042783          	lw	a5,-32(s0)
    126c:	fff78613          	addi	a2,a5,-1
    1270:	fffff7b7          	lui	a5,0xfffff
    1274:	ff078793          	addi	a5,a5,-16 # ffffeff0 <__stack_top+0xffff6ff4>
    1278:	008786b3          	add	a3,a5,s0
    127c:	00070793          	mv	a5,a4
    1280:	00279793          	slli	a5,a5,0x2
    1284:	00e787b3          	add	a5,a5,a4
    1288:	00179793          	slli	a5,a5,0x1
    128c:	00c787b3          	add	a5,a5,a2
    1290:	00279793          	slli	a5,a5,0x2
    1294:	00f687b3          	add	a5,a3,a5
    1298:	f6c7a683          	lw	a3,-148(a5)
    129c:	fffff7b7          	lui	a5,0xfffff
    12a0:	ff078793          	addi	a5,a5,-16 # ffffeff0 <__stack_top+0xffff6ff4>
    12a4:	00878633          	add	a2,a5,s0
    12a8:	fe442703          	lw	a4,-28(s0)
    12ac:	00070793          	mv	a5,a4
    12b0:	00279793          	slli	a5,a5,0x2
    12b4:	00e787b3          	add	a5,a5,a4
    12b8:	00179793          	slli	a5,a5,0x1
    12bc:	fe042703          	lw	a4,-32(s0)
    12c0:	00e787b3          	add	a5,a5,a4
    12c4:	00279793          	slli	a5,a5,0x2
    12c8:	00f607b3          	add	a5,a2,a5
    12cc:	f6d7a623          	sw	a3,-148(a5)
    12d0:	1300006f          	j	1400 <main+0x13bc>
    12d4:	fe042783          	lw	a5,-32(s0)
    12d8:	fff78613          	addi	a2,a5,-1
    12dc:	fffff7b7          	lui	a5,0xfffff
    12e0:	ff078793          	addi	a5,a5,-16 # ffffeff0 <__stack_top+0xffff6ff4>
    12e4:	008786b3          	add	a3,a5,s0
    12e8:	fe442703          	lw	a4,-28(s0)
    12ec:	00070793          	mv	a5,a4
    12f0:	00279793          	slli	a5,a5,0x2
    12f4:	00e787b3          	add	a5,a5,a4
    12f8:	00179793          	slli	a5,a5,0x1
    12fc:	00c787b3          	add	a5,a5,a2
    1300:	00279793          	slli	a5,a5,0x2
    1304:	00f687b3          	add	a5,a3,a5
    1308:	f6c7a783          	lw	a5,-148(a5)
    130c:	00178793          	addi	a5,a5,1
    1310:	e8f42e23          	sw	a5,-356(s0)
    1314:	fe442783          	lw	a5,-28(s0)
    1318:	fff78713          	addi	a4,a5,-1
    131c:	fffff7b7          	lui	a5,0xfffff
    1320:	ff078793          	addi	a5,a5,-16 # ffffeff0 <__stack_top+0xffff6ff4>
    1324:	008786b3          	add	a3,a5,s0
    1328:	00070793          	mv	a5,a4
    132c:	00279793          	slli	a5,a5,0x2
    1330:	00e787b3          	add	a5,a5,a4
    1334:	00179793          	slli	a5,a5,0x1
    1338:	fe042703          	lw	a4,-32(s0)
    133c:	00e787b3          	add	a5,a5,a4
    1340:	00279793          	slli	a5,a5,0x2
    1344:	00f687b3          	add	a5,a3,a5
    1348:	f6c7a783          	lw	a5,-148(a5)
    134c:	00178793          	addi	a5,a5,1
    1350:	e8f42c23          	sw	a5,-360(s0)
    1354:	fe442783          	lw	a5,-28(s0)
    1358:	fff78713          	addi	a4,a5,-1
    135c:	fe042783          	lw	a5,-32(s0)
    1360:	fff78613          	addi	a2,a5,-1
    1364:	fffff7b7          	lui	a5,0xfffff
    1368:	ff078793          	addi	a5,a5,-16 # ffffeff0 <__stack_top+0xffff6ff4>
    136c:	008786b3          	add	a3,a5,s0
    1370:	00070793          	mv	a5,a4
    1374:	00279793          	slli	a5,a5,0x2
    1378:	00e787b3          	add	a5,a5,a4
    137c:	00179793          	slli	a5,a5,0x1
    1380:	00c787b3          	add	a5,a5,a2
    1384:	00279793          	slli	a5,a5,0x2
    1388:	00f687b3          	add	a5,a3,a5
    138c:	f6c7a783          	lw	a5,-148(a5)
    1390:	00178793          	addi	a5,a5,1
    1394:	e8f42a23          	sw	a5,-364(s0)
    1398:	e9c42783          	lw	a5,-356(s0)
    139c:	fcf42423          	sw	a5,-56(s0)
    13a0:	e9842703          	lw	a4,-360(s0)
    13a4:	fc842783          	lw	a5,-56(s0)
    13a8:	00f75663          	bge	a4,a5,13b4 <main+0x1370>
    13ac:	e9842783          	lw	a5,-360(s0)
    13b0:	fcf42423          	sw	a5,-56(s0)
    13b4:	e9442703          	lw	a4,-364(s0)
    13b8:	fc842783          	lw	a5,-56(s0)
    13bc:	00f75663          	bge	a4,a5,13c8 <main+0x1384>
    13c0:	e9442783          	lw	a5,-364(s0)
    13c4:	fcf42423          	sw	a5,-56(s0)
    13c8:	fffff7b7          	lui	a5,0xfffff
    13cc:	ff078793          	addi	a5,a5,-16 # ffffeff0 <__stack_top+0xffff6ff4>
    13d0:	008786b3          	add	a3,a5,s0
    13d4:	fe442703          	lw	a4,-28(s0)
    13d8:	00070793          	mv	a5,a4
    13dc:	00279793          	slli	a5,a5,0x2
    13e0:	00e787b3          	add	a5,a5,a4
    13e4:	00179793          	slli	a5,a5,0x1
    13e8:	fe042703          	lw	a4,-32(s0)
    13ec:	00e787b3          	add	a5,a5,a4
    13f0:	00279793          	slli	a5,a5,0x2
    13f4:	00f687b3          	add	a5,a3,a5
    13f8:	fc842703          	lw	a4,-56(s0)
    13fc:	f6e7a623          	sw	a4,-148(a5)
    1400:	ffffe7b7          	lui	a5,0xffffe
    1404:	ff078793          	addi	a5,a5,-16 # ffffdff0 <__stack_top+0xffff5ff4>
    1408:	008787b3          	add	a5,a5,s0
    140c:	2487a783          	lw	a5,584(a5)
    1410:	00178713          	addi	a4,a5,1
    1414:	ffffe7b7          	lui	a5,0xffffe
    1418:	ff078793          	addi	a5,a5,-16 # ffffdff0 <__stack_top+0xffff5ff4>
    141c:	008787b3          	add	a5,a5,s0
    1420:	24e7a423          	sw	a4,584(a5)
    1424:	fffff7b7          	lui	a5,0xfffff
    1428:	ff078793          	addi	a5,a5,-16 # ffffeff0 <__stack_top+0xffff6ff4>
    142c:	008786b3          	add	a3,a5,s0
    1430:	fe442703          	lw	a4,-28(s0)
    1434:	00070793          	mv	a5,a4
    1438:	00279793          	slli	a5,a5,0x2
    143c:	00e787b3          	add	a5,a5,a4
    1440:	00179793          	slli	a5,a5,0x1
    1444:	fe042703          	lw	a4,-32(s0)
    1448:	00e787b3          	add	a5,a5,a4
    144c:	00279793          	slli	a5,a5,0x2
    1450:	00f687b3          	add	a5,a3,a5
    1454:	f6c7a703          	lw	a4,-148(a5)
    1458:	fe842783          	lw	a5,-24(s0)
    145c:	00f707b3          	add	a5,a4,a5
    1460:	16f00593          	li	a1,367
    1464:	00078513          	mv	a0,a5
    1468:	1c0030ef          	jal	4628 <__modsi3>
    146c:	00050793          	mv	a5,a0
    1470:	fef42423          	sw	a5,-24(s0)
    1474:	fe042783          	lw	a5,-32(s0)
    1478:	00178793          	addi	a5,a5,1
    147c:	fef42023          	sw	a5,-32(s0)
    1480:	fe042703          	lw	a4,-32(s0)
    1484:	00900793          	li	a5,9
    1488:	d8e7dae3          	bge	a5,a4,121c <main+0x11d8>
    148c:	fe442783          	lw	a5,-28(s0)
    1490:	00178793          	addi	a5,a5,1
    1494:	fef42223          	sw	a5,-28(s0)
    1498:	fe442703          	lw	a4,-28(s0)
    149c:	00900793          	li	a5,9
    14a0:	d6e7d8e3          	bge	a5,a4,1210 <main+0x11cc>
    14a4:	fffff7b7          	lui	a5,0xfffff
    14a8:	ff078793          	addi	a5,a5,-16 # ffffeff0 <__stack_top+0xffff6ff4>
    14ac:	008787b3          	add	a5,a5,s0
    14b0:	0f87a703          	lw	a4,248(a5)
    14b4:	ffffe7b7          	lui	a5,0xffffe
    14b8:	ff078793          	addi	a5,a5,-16 # ffffdff0 <__stack_top+0xffff5ff4>
    14bc:	008787b3          	add	a5,a5,s0
    14c0:	26e7a823          	sw	a4,624(a5)
    14c4:	ffffe7b7          	lui	a5,0xffffe
    14c8:	ff078793          	addi	a5,a5,-16 # ffffdff0 <__stack_top+0xffff5ff4>
    14cc:	008787b3          	add	a5,a5,s0
    14d0:	2707a783          	lw	a5,624(a5)
    14d4:	00179793          	slli	a5,a5,0x1
    14d8:	fec42703          	lw	a4,-20(s0)
    14dc:	00f707b3          	add	a5,a4,a5
    14e0:	fef42623          	sw	a5,-20(s0)
    14e4:	fffff7b7          	lui	a5,0xfffff
    14e8:	ff078793          	addi	a5,a5,-16 # ffffeff0 <__stack_top+0xffff6ff4>
    14ec:	008787b3          	add	a5,a5,s0
    14f0:	0f87a703          	lw	a4,248(a5)
    14f4:	000077b7          	lui	a5,0x7
    14f8:	01878793          	addi	a5,a5,24 # 7018 <results_array>
    14fc:	04e7ac23          	sw	a4,88(a5)
    1500:	fffff7b7          	lui	a5,0xfffff
    1504:	ff078793          	addi	a5,a5,-16 # ffffeff0 <__stack_top+0xffff6ff4>
    1508:	008787b3          	add	a5,a5,s0
    150c:	0487a703          	lw	a4,72(a5)
    1510:	000077b7          	lui	a5,0x7
    1514:	01878793          	addi	a5,a5,24 # 7018 <results_array>
    1518:	04e7ae23          	sw	a4,92(a5)
    151c:	ffffe7b7          	lui	a5,0xffffe
    1520:	ff078793          	addi	a5,a5,-16 # ffffdff0 <__stack_top+0xffff5ff4>
    1524:	008787b3          	add	a5,a5,s0
    1528:	2487a703          	lw	a4,584(a5)
    152c:	000077b7          	lui	a5,0x7
    1530:	01878793          	addi	a5,a5,24 # 7018 <results_array>
    1534:	06e7a023          	sw	a4,96(a5)
    1538:	000077b7          	lui	a5,0x7
    153c:	01878793          	addi	a5,a5,24 # 7018 <results_array>
    1540:	fe842703          	lw	a4,-24(s0)
    1544:	06e7a223          	sw	a4,100(a5)
    1548:	fe042223          	sw	zero,-28(s0)
    154c:	0740006f          	j	15c0 <main+0x157c>
    1550:	fe442703          	lw	a4,-28(s0)
    1554:	00070793          	mv	a5,a4
    1558:	00179793          	slli	a5,a5,0x1
    155c:	00e787b3          	add	a5,a5,a4
    1560:	00379793          	slli	a5,a5,0x3
    1564:	40e787b3          	sub	a5,a5,a4
    1568:	02978713          	addi	a4,a5,41
    156c:	fe442783          	lw	a5,-28(s0)
    1570:	00778793          	addi	a5,a5,7
    1574:	00078593          	mv	a1,a5
    1578:	00070513          	mv	a0,a4
    157c:	004030ef          	jal	4580 <__mulsi3>
    1580:	00050793          	mv	a5,a0
    1584:	07f00593          	li	a1,127
    1588:	00078513          	mv	a0,a5
    158c:	09c030ef          	jal	4628 <__modsi3>
    1590:	00050793          	mv	a5,a0
    1594:	00078693          	mv	a3,a5
    1598:	fffff7b7          	lui	a5,0xfffff
    159c:	ff078793          	addi	a5,a5,-16 # ffffeff0 <__stack_top+0xffff6ff4>
    15a0:	00878733          	add	a4,a5,s0
    15a4:	fe442783          	lw	a5,-28(s0)
    15a8:	00279793          	slli	a5,a5,0x2
    15ac:	00f707b3          	add	a5,a4,a5
    15b0:	b6d7a223          	sw	a3,-1180(a5)
    15b4:	fe442783          	lw	a5,-28(s0)
    15b8:	00178793          	addi	a5,a5,1
    15bc:	fef42223          	sw	a5,-28(s0)
    15c0:	fe442703          	lw	a4,-28(s0)
    15c4:	01d00793          	li	a5,29
    15c8:	f8e7d4e3          	bge	a5,a4,1550 <main+0x150c>
    15cc:	01e00793          	li	a5,30
    15d0:	f2f42023          	sw	a5,-224(s0)
    15d4:	f2042783          	lw	a5,-224(s0)
    15d8:	01f7d713          	srli	a4,a5,0x1f
    15dc:	00f707b3          	add	a5,a4,a5
    15e0:	4017d793          	srai	a5,a5,0x1
    15e4:	fff78793          	addi	a5,a5,-1
    15e8:	fef42223          	sw	a5,-28(s0)
    15ec:	2000006f          	j	17ec <main+0x17a8>
    15f0:	fe442783          	lw	a5,-28(s0)
    15f4:	fcf42223          	sw	a5,-60(s0)
    15f8:	fe442783          	lw	a5,-28(s0)
    15fc:	00179793          	slli	a5,a5,0x1
    1600:	00178793          	addi	a5,a5,1
    1604:	fcf42023          	sw	a5,-64(s0)
    1608:	fe442783          	lw	a5,-28(s0)
    160c:	00178793          	addi	a5,a5,1
    1610:	00179793          	slli	a5,a5,0x1
    1614:	faf42e23          	sw	a5,-68(s0)
    1618:	00100793          	li	a5,1
    161c:	faf42c23          	sw	a5,-72(s0)
    1620:	1b80006f          	j	17d8 <main+0x1794>
    1624:	fa042c23          	sw	zero,-72(s0)
    1628:	fc042703          	lw	a4,-64(s0)
    162c:	f2042783          	lw	a5,-224(s0)
    1630:	04f75463          	bge	a4,a5,1678 <main+0x1634>
    1634:	fffff7b7          	lui	a5,0xfffff
    1638:	ff078793          	addi	a5,a5,-16 # ffffeff0 <__stack_top+0xffff6ff4>
    163c:	00878733          	add	a4,a5,s0
    1640:	fc042783          	lw	a5,-64(s0)
    1644:	00279793          	slli	a5,a5,0x2
    1648:	00f707b3          	add	a5,a4,a5
    164c:	b647a703          	lw	a4,-1180(a5)
    1650:	fffff7b7          	lui	a5,0xfffff
    1654:	ff078793          	addi	a5,a5,-16 # ffffeff0 <__stack_top+0xffff6ff4>
    1658:	008786b3          	add	a3,a5,s0
    165c:	fc442783          	lw	a5,-60(s0)
    1660:	00279793          	slli	a5,a5,0x2
    1664:	00f687b3          	add	a5,a3,a5
    1668:	b647a783          	lw	a5,-1180(a5)
    166c:	00e7d663          	bge	a5,a4,1678 <main+0x1634>
    1670:	fc042783          	lw	a5,-64(s0)
    1674:	fcf42223          	sw	a5,-60(s0)
    1678:	fbc42703          	lw	a4,-68(s0)
    167c:	f2042783          	lw	a5,-224(s0)
    1680:	04f75463          	bge	a4,a5,16c8 <main+0x1684>
    1684:	fffff7b7          	lui	a5,0xfffff
    1688:	ff078793          	addi	a5,a5,-16 # ffffeff0 <__stack_top+0xffff6ff4>
    168c:	00878733          	add	a4,a5,s0
    1690:	fbc42783          	lw	a5,-68(s0)
    1694:	00279793          	slli	a5,a5,0x2
    1698:	00f707b3          	add	a5,a4,a5
    169c:	b647a703          	lw	a4,-1180(a5)
    16a0:	fffff7b7          	lui	a5,0xfffff
    16a4:	ff078793          	addi	a5,a5,-16 # ffffeff0 <__stack_top+0xffff6ff4>
    16a8:	008786b3          	add	a3,a5,s0
    16ac:	fc442783          	lw	a5,-60(s0)
    16b0:	00279793          	slli	a5,a5,0x2
    16b4:	00f687b3          	add	a5,a3,a5
    16b8:	b647a783          	lw	a5,-1180(a5)
    16bc:	00e7d663          	bge	a5,a4,16c8 <main+0x1684>
    16c0:	fbc42783          	lw	a5,-68(s0)
    16c4:	fcf42223          	sw	a5,-60(s0)
    16c8:	fc442703          	lw	a4,-60(s0)
    16cc:	fe442783          	lw	a5,-28(s0)
    16d0:	10f70463          	beq	a4,a5,17d8 <main+0x1794>
    16d4:	fffff7b7          	lui	a5,0xfffff
    16d8:	ff078793          	addi	a5,a5,-16 # ffffeff0 <__stack_top+0xffff6ff4>
    16dc:	00878733          	add	a4,a5,s0
    16e0:	fe442783          	lw	a5,-28(s0)
    16e4:	00279793          	slli	a5,a5,0x2
    16e8:	00f707b3          	add	a5,a4,a5
    16ec:	b647a783          	lw	a5,-1180(a5)
    16f0:	eaf42e23          	sw	a5,-324(s0)
    16f4:	fffff7b7          	lui	a5,0xfffff
    16f8:	ff078793          	addi	a5,a5,-16 # ffffeff0 <__stack_top+0xffff6ff4>
    16fc:	00878733          	add	a4,a5,s0
    1700:	fc442783          	lw	a5,-60(s0)
    1704:	00279793          	slli	a5,a5,0x2
    1708:	00f707b3          	add	a5,a4,a5
    170c:	b647a703          	lw	a4,-1180(a5)
    1710:	fffff7b7          	lui	a5,0xfffff
    1714:	ff078793          	addi	a5,a5,-16 # ffffeff0 <__stack_top+0xffff6ff4>
    1718:	008786b3          	add	a3,a5,s0
    171c:	fe442783          	lw	a5,-28(s0)
    1720:	00279793          	slli	a5,a5,0x2
    1724:	00f687b3          	add	a5,a3,a5
    1728:	b6e7a223          	sw	a4,-1180(a5)
    172c:	fffff7b7          	lui	a5,0xfffff
    1730:	ff078793          	addi	a5,a5,-16 # ffffeff0 <__stack_top+0xffff6ff4>
    1734:	00878733          	add	a4,a5,s0
    1738:	fc442783          	lw	a5,-60(s0)
    173c:	00279793          	slli	a5,a5,0x2
    1740:	00f707b3          	add	a5,a4,a5
    1744:	ebc42703          	lw	a4,-324(s0)
    1748:	b6e7a223          	sw	a4,-1180(a5)
    174c:	fc442783          	lw	a5,-60(s0)
    1750:	fef42223          	sw	a5,-28(s0)
    1754:	fe442783          	lw	a5,-28(s0)
    1758:	00179793          	slli	a5,a5,0x1
    175c:	00178793          	addi	a5,a5,1
    1760:	fcf42023          	sw	a5,-64(s0)
    1764:	fe442783          	lw	a5,-28(s0)
    1768:	00178793          	addi	a5,a5,1
    176c:	00179793          	slli	a5,a5,0x1
    1770:	faf42e23          	sw	a5,-68(s0)
    1774:	00100793          	li	a5,1
    1778:	faf42c23          	sw	a5,-72(s0)
    177c:	ffffe7b7          	lui	a5,0xffffe
    1780:	ff078793          	addi	a5,a5,-16 # ffffdff0 <__stack_top+0xffff5ff4>
    1784:	008787b3          	add	a5,a5,s0
    1788:	24c7a783          	lw	a5,588(a5)
    178c:	00178713          	addi	a4,a5,1
    1790:	ffffe7b7          	lui	a5,0xffffe
    1794:	ff078793          	addi	a5,a5,-16 # ffffdff0 <__stack_top+0xffff5ff4>
    1798:	008787b3          	add	a5,a5,s0
    179c:	24e7a623          	sw	a4,588(a5)
    17a0:	fffff7b7          	lui	a5,0xfffff
    17a4:	ff078793          	addi	a5,a5,-16 # ffffeff0 <__stack_top+0xffff6ff4>
    17a8:	00878733          	add	a4,a5,s0
    17ac:	fe442783          	lw	a5,-28(s0)
    17b0:	00279793          	slli	a5,a5,0x2
    17b4:	00f707b3          	add	a5,a4,a5
    17b8:	b647a703          	lw	a4,-1180(a5)
    17bc:	fe842783          	lw	a5,-24(s0)
    17c0:	00f707b3          	add	a5,a4,a5
    17c4:	16100593          	li	a1,353
    17c8:	00078513          	mv	a0,a5
    17cc:	65d020ef          	jal	4628 <__modsi3>
    17d0:	00050793          	mv	a5,a0
    17d4:	fef42423          	sw	a5,-24(s0)
    17d8:	fb842783          	lw	a5,-72(s0)
    17dc:	e40794e3          	bnez	a5,1624 <main+0x15e0>
    17e0:	fe442783          	lw	a5,-28(s0)
    17e4:	fff78793          	addi	a5,a5,-1
    17e8:	fef42223          	sw	a5,-28(s0)
    17ec:	fe442783          	lw	a5,-28(s0)
    17f0:	e007d0e3          	bgez	a5,15f0 <main+0x15ac>
    17f4:	f2042783          	lw	a5,-224(s0)
    17f8:	fff78793          	addi	a5,a5,-1
    17fc:	fef42223          	sw	a5,-28(s0)
    1800:	24c0006f          	j	1a4c <main+0x1a08>
    1804:	fffff7b7          	lui	a5,0xfffff
    1808:	ff078793          	addi	a5,a5,-16 # ffffeff0 <__stack_top+0xffff6ff4>
    180c:	008787b3          	add	a5,a5,s0
    1810:	b647a783          	lw	a5,-1180(a5)
    1814:	eaf42e23          	sw	a5,-324(s0)
    1818:	fffff7b7          	lui	a5,0xfffff
    181c:	ff078793          	addi	a5,a5,-16 # ffffeff0 <__stack_top+0xffff6ff4>
    1820:	00878733          	add	a4,a5,s0
    1824:	fe442783          	lw	a5,-28(s0)
    1828:	00279793          	slli	a5,a5,0x2
    182c:	00f707b3          	add	a5,a4,a5
    1830:	b647a703          	lw	a4,-1180(a5)
    1834:	fffff7b7          	lui	a5,0xfffff
    1838:	ff078793          	addi	a5,a5,-16 # ffffeff0 <__stack_top+0xffff6ff4>
    183c:	008787b3          	add	a5,a5,s0
    1840:	b6e7a223          	sw	a4,-1180(a5)
    1844:	fffff7b7          	lui	a5,0xfffff
    1848:	ff078793          	addi	a5,a5,-16 # ffffeff0 <__stack_top+0xffff6ff4>
    184c:	00878733          	add	a4,a5,s0
    1850:	fe442783          	lw	a5,-28(s0)
    1854:	00279793          	slli	a5,a5,0x2
    1858:	00f707b3          	add	a5,a4,a5
    185c:	ebc42703          	lw	a4,-324(s0)
    1860:	b6e7a223          	sw	a4,-1180(a5)
    1864:	fa042a23          	sw	zero,-76(s0)
    1868:	fe442783          	lw	a5,-28(s0)
    186c:	eaf42423          	sw	a5,-344(s0)
    1870:	00100793          	li	a5,1
    1874:	faf42823          	sw	a5,-80(s0)
    1878:	1c00006f          	j	1a38 <main+0x19f4>
    187c:	fa042823          	sw	zero,-80(s0)
    1880:	fb442783          	lw	a5,-76(s0)
    1884:	faf42623          	sw	a5,-84(s0)
    1888:	fb442783          	lw	a5,-76(s0)
    188c:	00179793          	slli	a5,a5,0x1
    1890:	00178793          	addi	a5,a5,1
    1894:	eaf42223          	sw	a5,-348(s0)
    1898:	fb442783          	lw	a5,-76(s0)
    189c:	00178793          	addi	a5,a5,1
    18a0:	00179793          	slli	a5,a5,0x1
    18a4:	eaf42023          	sw	a5,-352(s0)
    18a8:	ea442703          	lw	a4,-348(s0)
    18ac:	ea842783          	lw	a5,-344(s0)
    18b0:	04f75463          	bge	a4,a5,18f8 <main+0x18b4>
    18b4:	fffff7b7          	lui	a5,0xfffff
    18b8:	ff078793          	addi	a5,a5,-16 # ffffeff0 <__stack_top+0xffff6ff4>
    18bc:	00878733          	add	a4,a5,s0
    18c0:	ea442783          	lw	a5,-348(s0)
    18c4:	00279793          	slli	a5,a5,0x2
    18c8:	00f707b3          	add	a5,a4,a5
    18cc:	b647a703          	lw	a4,-1180(a5)
    18d0:	fffff7b7          	lui	a5,0xfffff
    18d4:	ff078793          	addi	a5,a5,-16 # ffffeff0 <__stack_top+0xffff6ff4>
    18d8:	008786b3          	add	a3,a5,s0
    18dc:	fac42783          	lw	a5,-84(s0)
    18e0:	00279793          	slli	a5,a5,0x2
    18e4:	00f687b3          	add	a5,a3,a5
    18e8:	b647a783          	lw	a5,-1180(a5)
    18ec:	00e7d663          	bge	a5,a4,18f8 <main+0x18b4>
    18f0:	ea442783          	lw	a5,-348(s0)
    18f4:	faf42623          	sw	a5,-84(s0)
    18f8:	ea042703          	lw	a4,-352(s0)
    18fc:	ea842783          	lw	a5,-344(s0)
    1900:	04f75463          	bge	a4,a5,1948 <main+0x1904>
    1904:	fffff7b7          	lui	a5,0xfffff
    1908:	ff078793          	addi	a5,a5,-16 # ffffeff0 <__stack_top+0xffff6ff4>
    190c:	00878733          	add	a4,a5,s0
    1910:	ea042783          	lw	a5,-352(s0)
    1914:	00279793          	slli	a5,a5,0x2
    1918:	00f707b3          	add	a5,a4,a5
    191c:	b647a703          	lw	a4,-1180(a5)
    1920:	fffff7b7          	lui	a5,0xfffff
    1924:	ff078793          	addi	a5,a5,-16 # ffffeff0 <__stack_top+0xffff6ff4>
    1928:	008786b3          	add	a3,a5,s0
    192c:	fac42783          	lw	a5,-84(s0)
    1930:	00279793          	slli	a5,a5,0x2
    1934:	00f687b3          	add	a5,a3,a5
    1938:	b647a783          	lw	a5,-1180(a5)
    193c:	00e7d663          	bge	a5,a4,1948 <main+0x1904>
    1940:	ea042783          	lw	a5,-352(s0)
    1944:	faf42623          	sw	a5,-84(s0)
    1948:	fac42703          	lw	a4,-84(s0)
    194c:	fb442783          	lw	a5,-76(s0)
    1950:	0ef70463          	beq	a4,a5,1a38 <main+0x19f4>
    1954:	fffff7b7          	lui	a5,0xfffff
    1958:	ff078793          	addi	a5,a5,-16 # ffffeff0 <__stack_top+0xffff6ff4>
    195c:	00878733          	add	a4,a5,s0
    1960:	fb442783          	lw	a5,-76(s0)
    1964:	00279793          	slli	a5,a5,0x2
    1968:	00f707b3          	add	a5,a4,a5
    196c:	b647a783          	lw	a5,-1180(a5)
    1970:	eaf42e23          	sw	a5,-324(s0)
    1974:	fffff7b7          	lui	a5,0xfffff
    1978:	ff078793          	addi	a5,a5,-16 # ffffeff0 <__stack_top+0xffff6ff4>
    197c:	00878733          	add	a4,a5,s0
    1980:	fac42783          	lw	a5,-84(s0)
    1984:	00279793          	slli	a5,a5,0x2
    1988:	00f707b3          	add	a5,a4,a5
    198c:	b647a703          	lw	a4,-1180(a5)
    1990:	fffff7b7          	lui	a5,0xfffff
    1994:	ff078793          	addi	a5,a5,-16 # ffffeff0 <__stack_top+0xffff6ff4>
    1998:	008786b3          	add	a3,a5,s0
    199c:	fb442783          	lw	a5,-76(s0)
    19a0:	00279793          	slli	a5,a5,0x2
    19a4:	00f687b3          	add	a5,a3,a5
    19a8:	b6e7a223          	sw	a4,-1180(a5)
    19ac:	fffff7b7          	lui	a5,0xfffff
    19b0:	ff078793          	addi	a5,a5,-16 # ffffeff0 <__stack_top+0xffff6ff4>
    19b4:	00878733          	add	a4,a5,s0
    19b8:	fac42783          	lw	a5,-84(s0)
    19bc:	00279793          	slli	a5,a5,0x2
    19c0:	00f707b3          	add	a5,a4,a5
    19c4:	ebc42703          	lw	a4,-324(s0)
    19c8:	b6e7a223          	sw	a4,-1180(a5)
    19cc:	fac42783          	lw	a5,-84(s0)
    19d0:	faf42a23          	sw	a5,-76(s0)
    19d4:	00100793          	li	a5,1
    19d8:	faf42823          	sw	a5,-80(s0)
    19dc:	ffffe7b7          	lui	a5,0xffffe
    19e0:	ff078793          	addi	a5,a5,-16 # ffffdff0 <__stack_top+0xffff5ff4>
    19e4:	008787b3          	add	a5,a5,s0
    19e8:	24c7a783          	lw	a5,588(a5)
    19ec:	00178713          	addi	a4,a5,1
    19f0:	ffffe7b7          	lui	a5,0xffffe
    19f4:	ff078793          	addi	a5,a5,-16 # ffffdff0 <__stack_top+0xffff5ff4>
    19f8:	008787b3          	add	a5,a5,s0
    19fc:	24e7a623          	sw	a4,588(a5)
    1a00:	fffff7b7          	lui	a5,0xfffff
    1a04:	ff078793          	addi	a5,a5,-16 # ffffeff0 <__stack_top+0xffff6ff4>
    1a08:	00878733          	add	a4,a5,s0
    1a0c:	fb442783          	lw	a5,-76(s0)
    1a10:	00279793          	slli	a5,a5,0x2
    1a14:	00f707b3          	add	a5,a4,a5
    1a18:	b647a703          	lw	a4,-1180(a5)
    1a1c:	fe842783          	lw	a5,-24(s0)
    1a20:	00f707b3          	add	a5,a4,a5
    1a24:	15d00593          	li	a1,349
    1a28:	00078513          	mv	a0,a5
    1a2c:	3fd020ef          	jal	4628 <__modsi3>
    1a30:	00050793          	mv	a5,a0
    1a34:	fef42423          	sw	a5,-24(s0)
    1a38:	fb042783          	lw	a5,-80(s0)
    1a3c:	e40790e3          	bnez	a5,187c <main+0x1838>
    1a40:	fe442783          	lw	a5,-28(s0)
    1a44:	fff78793          	addi	a5,a5,-1
    1a48:	fef42223          	sw	a5,-28(s0)
    1a4c:	fe442783          	lw	a5,-28(s0)
    1a50:	daf04ae3          	bgtz	a5,1804 <main+0x17c0>
    1a54:	fffff7b7          	lui	a5,0xfffff
    1a58:	ff078793          	addi	a5,a5,-16 # ffffeff0 <__stack_top+0xffff6ff4>
    1a5c:	008787b3          	add	a5,a5,s0
    1a60:	b647a703          	lw	a4,-1180(a5)
    1a64:	fffff7b7          	lui	a5,0xfffff
    1a68:	ff078793          	addi	a5,a5,-16 # ffffeff0 <__stack_top+0xffff6ff4>
    1a6c:	008787b3          	add	a5,a5,s0
    1a70:	bd87a783          	lw	a5,-1064(a5)
    1a74:	00f70733          	add	a4,a4,a5
    1a78:	ffffe7b7          	lui	a5,0xffffe
    1a7c:	ff078793          	addi	a5,a5,-16 # ffffdff0 <__stack_top+0xffff5ff4>
    1a80:	008787b3          	add	a5,a5,s0
    1a84:	26e7aa23          	sw	a4,628(a5)
    1a88:	ffffe7b7          	lui	a5,0xffffe
    1a8c:	ff078793          	addi	a5,a5,-16 # ffffdff0 <__stack_top+0xffff5ff4>
    1a90:	008787b3          	add	a5,a5,s0
    1a94:	2747a783          	lw	a5,628(a5)
    1a98:	fec42703          	lw	a4,-20(s0)
    1a9c:	00f707b3          	add	a5,a4,a5
    1aa0:	fef42623          	sw	a5,-20(s0)
    1aa4:	fffff7b7          	lui	a5,0xfffff
    1aa8:	ff078793          	addi	a5,a5,-16 # ffffeff0 <__stack_top+0xffff6ff4>
    1aac:	008787b3          	add	a5,a5,s0
    1ab0:	b647a703          	lw	a4,-1180(a5)
    1ab4:	000077b7          	lui	a5,0x7
    1ab8:	01878793          	addi	a5,a5,24 # 7018 <results_array>
    1abc:	06e7a423          	sw	a4,104(a5)
    1ac0:	fffff7b7          	lui	a5,0xfffff
    1ac4:	ff078793          	addi	a5,a5,-16 # ffffeff0 <__stack_top+0xffff6ff4>
    1ac8:	008787b3          	add	a5,a5,s0
    1acc:	bd87a703          	lw	a4,-1064(a5)
    1ad0:	000077b7          	lui	a5,0x7
    1ad4:	01878793          	addi	a5,a5,24 # 7018 <results_array>
    1ad8:	06e7a623          	sw	a4,108(a5)
    1adc:	fffff7b7          	lui	a5,0xfffff
    1ae0:	ff078793          	addi	a5,a5,-16 # ffffeff0 <__stack_top+0xffff6ff4>
    1ae4:	008787b3          	add	a5,a5,s0
    1ae8:	ba07a703          	lw	a4,-1120(a5)
    1aec:	000077b7          	lui	a5,0x7
    1af0:	01878793          	addi	a5,a5,24 # 7018 <results_array>
    1af4:	06e7a823          	sw	a4,112(a5)
    1af8:	ffffe7b7          	lui	a5,0xffffe
    1afc:	ff078793          	addi	a5,a5,-16 # ffffdff0 <__stack_top+0xffff5ff4>
    1b00:	008787b3          	add	a5,a5,s0
    1b04:	24c7a703          	lw	a4,588(a5)
    1b08:	000077b7          	lui	a5,0x7
    1b0c:	01878793          	addi	a5,a5,24 # 7018 <results_array>
    1b10:	06e7aa23          	sw	a4,116(a5)
    1b14:	000077b7          	lui	a5,0x7
    1b18:	01878793          	addi	a5,a5,24 # 7018 <results_array>
    1b1c:	fe842703          	lw	a4,-24(s0)
    1b20:	06e7ac23          	sw	a4,120(a5)
    1b24:	fe042223          	sw	zero,-28(s0)
    1b28:	0640006f          	j	1b8c <main+0x1b48>
    1b2c:	fffff7b7          	lui	a5,0xfffff
    1b30:	ff078793          	addi	a5,a5,-16 # ffffeff0 <__stack_top+0xffff6ff4>
    1b34:	00878733          	add	a4,a5,s0
    1b38:	fe442783          	lw	a5,-28(s0)
    1b3c:	00279793          	slli	a5,a5,0x2
    1b40:	00f707b3          	add	a5,a4,a5
    1b44:	9807ac23          	sw	zero,-1640(a5)
    1b48:	fffff7b7          	lui	a5,0xfffff
    1b4c:	ff078793          	addi	a5,a5,-16 # ffffeff0 <__stack_top+0xffff6ff4>
    1b50:	00878733          	add	a4,a5,s0
    1b54:	fe442783          	lw	a5,-28(s0)
    1b58:	00279793          	slli	a5,a5,0x2
    1b5c:	00f707b3          	add	a5,a4,a5
    1b60:	9407ae23          	sw	zero,-1700(a5)
    1b64:	fffff7b7          	lui	a5,0xfffff
    1b68:	ff078793          	addi	a5,a5,-16 # ffffeff0 <__stack_top+0xffff6ff4>
    1b6c:	00878733          	add	a4,a5,s0
    1b70:	fe442783          	lw	a5,-28(s0)
    1b74:	00279793          	slli	a5,a5,0x2
    1b78:	00f707b3          	add	a5,a4,a5
    1b7c:	9207a023          	sw	zero,-1760(a5)
    1b80:	fe442783          	lw	a5,-28(s0)
    1b84:	00178793          	addi	a5,a5,1
    1b88:	fef42223          	sw	a5,-28(s0)
    1b8c:	fe442703          	lw	a4,-28(s0)
    1b90:	00e00793          	li	a5,14
    1b94:	f8e7dce3          	bge	a5,a4,1b2c <main+0x1ae8>
    1b98:	00700793          	li	a5,7
    1b9c:	f0f42e23          	sw	a5,-228(s0)
    1ba0:	00e00793          	li	a5,14
    1ba4:	f0f42c23          	sw	a5,-232(s0)
    1ba8:	fffff7b7          	lui	a5,0xfffff
    1bac:	ff078793          	addi	a5,a5,-16 # ffffeff0 <__stack_top+0xffff6ff4>
    1bb0:	008787b3          	add	a5,a5,s0
    1bb4:	00100713          	li	a4,1
    1bb8:	94e7ae23          	sw	a4,-1700(a5)
    1bbc:	fffff7b7          	lui	a5,0xfffff
    1bc0:	ff078793          	addi	a5,a5,-16 # ffffeff0 <__stack_top+0xffff6ff4>
    1bc4:	008787b3          	add	a5,a5,s0
    1bc8:	00200713          	li	a4,2
    1bcc:	96e7a023          	sw	a4,-1696(a5)
    1bd0:	fffff7b7          	lui	a5,0xfffff
    1bd4:	ff078793          	addi	a5,a5,-16 # ffffeff0 <__stack_top+0xffff6ff4>
    1bd8:	008787b3          	add	a5,a5,s0
    1bdc:	00100713          	li	a4,1
    1be0:	96e7a223          	sw	a4,-1692(a5)
    1be4:	fffff7b7          	lui	a5,0xfffff
    1be8:	ff078793          	addi	a5,a5,-16 # ffffeff0 <__stack_top+0xffff6ff4>
    1bec:	008787b3          	add	a5,a5,s0
    1bf0:	00200713          	li	a4,2
    1bf4:	96e7a423          	sw	a4,-1688(a5)
    1bf8:	fffff7b7          	lui	a5,0xfffff
    1bfc:	ff078793          	addi	a5,a5,-16 # ffffeff0 <__stack_top+0xffff6ff4>
    1c00:	008787b3          	add	a5,a5,s0
    1c04:	00300713          	li	a4,3
    1c08:	96e7a623          	sw	a4,-1684(a5)
    1c0c:	fffff7b7          	lui	a5,0xfffff
    1c10:	ff078793          	addi	a5,a5,-16 # ffffeff0 <__stack_top+0xffff6ff4>
    1c14:	008787b3          	add	a5,a5,s0
    1c18:	00200713          	li	a4,2
    1c1c:	96e7a823          	sw	a4,-1680(a5)
    1c20:	fffff7b7          	lui	a5,0xfffff
    1c24:	ff078793          	addi	a5,a5,-16 # ffffeff0 <__stack_top+0xffff6ff4>
    1c28:	008787b3          	add	a5,a5,s0
    1c2c:	00100713          	li	a4,1
    1c30:	96e7aa23          	sw	a4,-1676(a5)
    1c34:	fffff7b7          	lui	a5,0xfffff
    1c38:	ff078793          	addi	a5,a5,-16 # ffffeff0 <__stack_top+0xffff6ff4>
    1c3c:	008787b3          	add	a5,a5,s0
    1c40:	00300713          	li	a4,3
    1c44:	98e7ac23          	sw	a4,-1640(a5)
    1c48:	fffff7b7          	lui	a5,0xfffff
    1c4c:	ff078793          	addi	a5,a5,-16 # ffffeff0 <__stack_top+0xffff6ff4>
    1c50:	008787b3          	add	a5,a5,s0
    1c54:	00100713          	li	a4,1
    1c58:	98e7ae23          	sw	a4,-1636(a5)
    1c5c:	fffff7b7          	lui	a5,0xfffff
    1c60:	ff078793          	addi	a5,a5,-16 # ffffeff0 <__stack_top+0xffff6ff4>
    1c64:	008787b3          	add	a5,a5,s0
    1c68:	00200713          	li	a4,2
    1c6c:	9ae7a023          	sw	a4,-1632(a5)
    1c70:	fffff7b7          	lui	a5,0xfffff
    1c74:	ff078793          	addi	a5,a5,-16 # ffffeff0 <__stack_top+0xffff6ff4>
    1c78:	008787b3          	add	a5,a5,s0
    1c7c:	00100713          	li	a4,1
    1c80:	9ae7a223          	sw	a4,-1628(a5)
    1c84:	fffff7b7          	lui	a5,0xfffff
    1c88:	ff078793          	addi	a5,a5,-16 # ffffeff0 <__stack_top+0xffff6ff4>
    1c8c:	008787b3          	add	a5,a5,s0
    1c90:	00200713          	li	a4,2
    1c94:	9ae7a423          	sw	a4,-1624(a5)
    1c98:	fffff7b7          	lui	a5,0xfffff
    1c9c:	ff078793          	addi	a5,a5,-16 # ffffeff0 <__stack_top+0xffff6ff4>
    1ca0:	008787b3          	add	a5,a5,s0
    1ca4:	00300713          	li	a4,3
    1ca8:	9ae7a623          	sw	a4,-1620(a5)
    1cac:	fffff7b7          	lui	a5,0xfffff
    1cb0:	ff078793          	addi	a5,a5,-16 # ffffeff0 <__stack_top+0xffff6ff4>
    1cb4:	008787b3          	add	a5,a5,s0
    1cb8:	00200713          	li	a4,2
    1cbc:	9ae7a823          	sw	a4,-1616(a5)
    1cc0:	fffff7b7          	lui	a5,0xfffff
    1cc4:	ff078793          	addi	a5,a5,-16 # ffffeff0 <__stack_top+0xffff6ff4>
    1cc8:	008787b3          	add	a5,a5,s0
    1ccc:	00100713          	li	a4,1
    1cd0:	9ae7aa23          	sw	a4,-1612(a5)
    1cd4:	fffff7b7          	lui	a5,0xfffff
    1cd8:	ff078793          	addi	a5,a5,-16 # ffffeff0 <__stack_top+0xffff6ff4>
    1cdc:	008787b3          	add	a5,a5,s0
    1ce0:	00400713          	li	a4,4
    1ce4:	9ae7ac23          	sw	a4,-1608(a5)
    1ce8:	fffff7b7          	lui	a5,0xfffff
    1cec:	ff078793          	addi	a5,a5,-16 # ffffeff0 <__stack_top+0xffff6ff4>
    1cf0:	008787b3          	add	a5,a5,s0
    1cf4:	00100713          	li	a4,1
    1cf8:	9ae7ae23          	sw	a4,-1604(a5)
    1cfc:	fffff7b7          	lui	a5,0xfffff
    1d00:	ff078793          	addi	a5,a5,-16 # ffffeff0 <__stack_top+0xffff6ff4>
    1d04:	008787b3          	add	a5,a5,s0
    1d08:	00200713          	li	a4,2
    1d0c:	9ce7a023          	sw	a4,-1600(a5)
    1d10:	fffff7b7          	lui	a5,0xfffff
    1d14:	ff078793          	addi	a5,a5,-16 # ffffeff0 <__stack_top+0xffff6ff4>
    1d18:	008787b3          	add	a5,a5,s0
    1d1c:	00100713          	li	a4,1
    1d20:	9ce7a223          	sw	a4,-1596(a5)
    1d24:	fffff7b7          	lui	a5,0xfffff
    1d28:	ff078793          	addi	a5,a5,-16 # ffffeff0 <__stack_top+0xffff6ff4>
    1d2c:	008787b3          	add	a5,a5,s0
    1d30:	00200713          	li	a4,2
    1d34:	9ce7a423          	sw	a4,-1592(a5)
    1d38:	fffff7b7          	lui	a5,0xfffff
    1d3c:	ff078793          	addi	a5,a5,-16 # ffffeff0 <__stack_top+0xffff6ff4>
    1d40:	008787b3          	add	a5,a5,s0
    1d44:	00300713          	li	a4,3
    1d48:	9ce7a623          	sw	a4,-1588(a5)
    1d4c:	fa042423          	sw	zero,-88(s0)
    1d50:	fffff7b7          	lui	a5,0xfffff
    1d54:	ff078793          	addi	a5,a5,-16 # ffffeff0 <__stack_top+0xffff6ff4>
    1d58:	008787b3          	add	a5,a5,s0
    1d5c:	9207a023          	sw	zero,-1760(a5)
    1d60:	00100793          	li	a5,1
    1d64:	fef42223          	sw	a5,-28(s0)
    1d68:	1340006f          	j	1e9c <main+0x1e58>
    1d6c:	fffff7b7          	lui	a5,0xfffff
    1d70:	ff078793          	addi	a5,a5,-16 # ffffeff0 <__stack_top+0xffff6ff4>
    1d74:	00878733          	add	a4,a5,s0
    1d78:	fe442783          	lw	a5,-28(s0)
    1d7c:	00279793          	slli	a5,a5,0x2
    1d80:	00f707b3          	add	a5,a4,a5
    1d84:	95c7a703          	lw	a4,-1700(a5)
    1d88:	fffff7b7          	lui	a5,0xfffff
    1d8c:	ff078793          	addi	a5,a5,-16 # ffffeff0 <__stack_top+0xffff6ff4>
    1d90:	008786b3          	add	a3,a5,s0
    1d94:	fa842783          	lw	a5,-88(s0)
    1d98:	00279793          	slli	a5,a5,0x2
    1d9c:	00f687b3          	add	a5,a3,a5
    1da0:	95c7a783          	lw	a5,-1700(a5)
    1da4:	04f71063          	bne	a4,a5,1de4 <main+0x1da0>
    1da8:	fa842783          	lw	a5,-88(s0)
    1dac:	00178793          	addi	a5,a5,1
    1db0:	faf42423          	sw	a5,-88(s0)
    1db4:	fffff7b7          	lui	a5,0xfffff
    1db8:	ff078793          	addi	a5,a5,-16 # ffffeff0 <__stack_top+0xffff6ff4>
    1dbc:	00878733          	add	a4,a5,s0
    1dc0:	fe442783          	lw	a5,-28(s0)
    1dc4:	00279793          	slli	a5,a5,0x2
    1dc8:	00f707b3          	add	a5,a4,a5
    1dcc:	fa842703          	lw	a4,-88(s0)
    1dd0:	92e7a023          	sw	a4,-1760(a5)
    1dd4:	fe442783          	lw	a5,-28(s0)
    1dd8:	00178793          	addi	a5,a5,1
    1ddc:	fef42223          	sw	a5,-28(s0)
    1de0:	05c0006f          	j	1e3c <main+0x1df8>
    1de4:	fa842783          	lw	a5,-88(s0)
    1de8:	02078663          	beqz	a5,1e14 <main+0x1dd0>
    1dec:	fa842783          	lw	a5,-88(s0)
    1df0:	fff78793          	addi	a5,a5,-1
    1df4:	fffff737          	lui	a4,0xfffff
    1df8:	ff070713          	addi	a4,a4,-16 # ffffeff0 <__stack_top+0xffff6ff4>
    1dfc:	00870733          	add	a4,a4,s0
    1e00:	00279793          	slli	a5,a5,0x2
    1e04:	00f707b3          	add	a5,a4,a5
    1e08:	9207a783          	lw	a5,-1760(a5)
    1e0c:	faf42423          	sw	a5,-88(s0)
    1e10:	02c0006f          	j	1e3c <main+0x1df8>
    1e14:	fffff7b7          	lui	a5,0xfffff
    1e18:	ff078793          	addi	a5,a5,-16 # ffffeff0 <__stack_top+0xffff6ff4>
    1e1c:	00878733          	add	a4,a5,s0
    1e20:	fe442783          	lw	a5,-28(s0)
    1e24:	00279793          	slli	a5,a5,0x2
    1e28:	00f707b3          	add	a5,a4,a5
    1e2c:	9207a023          	sw	zero,-1760(a5)
    1e30:	fe442783          	lw	a5,-28(s0)
    1e34:	00178793          	addi	a5,a5,1
    1e38:	fef42223          	sw	a5,-28(s0)
    1e3c:	ffffe7b7          	lui	a5,0xffffe
    1e40:	ff078793          	addi	a5,a5,-16 # ffffdff0 <__stack_top+0xffff5ff4>
    1e44:	008787b3          	add	a5,a5,s0
    1e48:	2507a783          	lw	a5,592(a5)
    1e4c:	00178713          	addi	a4,a5,1
    1e50:	ffffe7b7          	lui	a5,0xffffe
    1e54:	ff078793          	addi	a5,a5,-16 # ffffdff0 <__stack_top+0xffff5ff4>
    1e58:	008787b3          	add	a5,a5,s0
    1e5c:	24e7a823          	sw	a4,592(a5)
    1e60:	fe442783          	lw	a5,-28(s0)
    1e64:	fff78793          	addi	a5,a5,-1
    1e68:	fffff737          	lui	a4,0xfffff
    1e6c:	ff070713          	addi	a4,a4,-16 # ffffeff0 <__stack_top+0xffff6ff4>
    1e70:	00870733          	add	a4,a4,s0
    1e74:	00279793          	slli	a5,a5,0x2
    1e78:	00f707b3          	add	a5,a4,a5
    1e7c:	9207a703          	lw	a4,-1760(a5)
    1e80:	fe842783          	lw	a5,-24(s0)
    1e84:	00f707b3          	add	a5,a4,a5
    1e88:	15100593          	li	a1,337
    1e8c:	00078513          	mv	a0,a5
    1e90:	798020ef          	jal	4628 <__modsi3>
    1e94:	00050793          	mv	a5,a0
    1e98:	fef42423          	sw	a5,-24(s0)
    1e9c:	fe442703          	lw	a4,-28(s0)
    1ea0:	f1c42783          	lw	a5,-228(s0)
    1ea4:	ecf744e3          	blt	a4,a5,1d6c <main+0x1d28>
    1ea8:	fa042223          	sw	zero,-92(s0)
    1eac:	fe042223          	sw	zero,-28(s0)
    1eb0:	fe042023          	sw	zero,-32(s0)
    1eb4:	1680006f          	j	201c <main+0x1fd8>
    1eb8:	fffff7b7          	lui	a5,0xfffff
    1ebc:	ff078793          	addi	a5,a5,-16 # ffffeff0 <__stack_top+0xffff6ff4>
    1ec0:	00878733          	add	a4,a5,s0
    1ec4:	fe442783          	lw	a5,-28(s0)
    1ec8:	00279793          	slli	a5,a5,0x2
    1ecc:	00f707b3          	add	a5,a4,a5
    1ed0:	9987a703          	lw	a4,-1640(a5)
    1ed4:	fffff7b7          	lui	a5,0xfffff
    1ed8:	ff078793          	addi	a5,a5,-16 # ffffeff0 <__stack_top+0xffff6ff4>
    1edc:	008786b3          	add	a3,a5,s0
    1ee0:	fe042783          	lw	a5,-32(s0)
    1ee4:	00279793          	slli	a5,a5,0x2
    1ee8:	00f687b3          	add	a5,a3,a5
    1eec:	95c7a783          	lw	a5,-1700(a5)
    1ef0:	00f71e63          	bne	a4,a5,1f0c <main+0x1ec8>
    1ef4:	fe442783          	lw	a5,-28(s0)
    1ef8:	00178793          	addi	a5,a5,1
    1efc:	fef42223          	sw	a5,-28(s0)
    1f00:	fe042783          	lw	a5,-32(s0)
    1f04:	00178793          	addi	a5,a5,1
    1f08:	fef42023          	sw	a5,-32(s0)
    1f0c:	fe042703          	lw	a4,-32(s0)
    1f10:	f1c42783          	lw	a5,-228(s0)
    1f14:	04f71e63          	bne	a4,a5,1f70 <main+0x1f2c>
    1f18:	fa442783          	lw	a5,-92(s0)
    1f1c:	00178793          	addi	a5,a5,1
    1f20:	faf42223          	sw	a5,-92(s0)
    1f24:	fe042783          	lw	a5,-32(s0)
    1f28:	fff78793          	addi	a5,a5,-1
    1f2c:	fffff737          	lui	a4,0xfffff
    1f30:	ff070713          	addi	a4,a4,-16 # ffffeff0 <__stack_top+0xffff6ff4>
    1f34:	00870733          	add	a4,a4,s0
    1f38:	00279793          	slli	a5,a5,0x2
    1f3c:	00f707b3          	add	a5,a4,a5
    1f40:	9207a783          	lw	a5,-1760(a5)
    1f44:	fef42023          	sw	a5,-32(s0)
    1f48:	ffffe7b7          	lui	a5,0xffffe
    1f4c:	ff078793          	addi	a5,a5,-16 # ffffdff0 <__stack_top+0xffff5ff4>
    1f50:	008787b3          	add	a5,a5,s0
    1f54:	2507a783          	lw	a5,592(a5)
    1f58:	00178713          	addi	a4,a5,1
    1f5c:	ffffe7b7          	lui	a5,0xffffe
    1f60:	ff078793          	addi	a5,a5,-16 # ffffdff0 <__stack_top+0xffff5ff4>
    1f64:	008787b3          	add	a5,a5,s0
    1f68:	24e7a823          	sw	a4,592(a5)
    1f6c:	0880006f          	j	1ff4 <main+0x1fb0>
    1f70:	fe442703          	lw	a4,-28(s0)
    1f74:	f1842783          	lw	a5,-232(s0)
    1f78:	06f75e63          	bge	a4,a5,1ff4 <main+0x1fb0>
    1f7c:	fffff7b7          	lui	a5,0xfffff
    1f80:	ff078793          	addi	a5,a5,-16 # ffffeff0 <__stack_top+0xffff6ff4>
    1f84:	00878733          	add	a4,a5,s0
    1f88:	fe442783          	lw	a5,-28(s0)
    1f8c:	00279793          	slli	a5,a5,0x2
    1f90:	00f707b3          	add	a5,a4,a5
    1f94:	9987a703          	lw	a4,-1640(a5)
    1f98:	fffff7b7          	lui	a5,0xfffff
    1f9c:	ff078793          	addi	a5,a5,-16 # ffffeff0 <__stack_top+0xffff6ff4>
    1fa0:	008786b3          	add	a3,a5,s0
    1fa4:	fe042783          	lw	a5,-32(s0)
    1fa8:	00279793          	slli	a5,a5,0x2
    1fac:	00f687b3          	add	a5,a3,a5
    1fb0:	95c7a783          	lw	a5,-1700(a5)
    1fb4:	04f70063          	beq	a4,a5,1ff4 <main+0x1fb0>
    1fb8:	fe042783          	lw	a5,-32(s0)
    1fbc:	02078663          	beqz	a5,1fe8 <main+0x1fa4>
    1fc0:	fe042783          	lw	a5,-32(s0)
    1fc4:	fff78793          	addi	a5,a5,-1
    1fc8:	fffff737          	lui	a4,0xfffff
    1fcc:	ff070713          	addi	a4,a4,-16 # ffffeff0 <__stack_top+0xffff6ff4>
    1fd0:	00870733          	add	a4,a4,s0
    1fd4:	00279793          	slli	a5,a5,0x2
    1fd8:	00f707b3          	add	a5,a4,a5
    1fdc:	9207a783          	lw	a5,-1760(a5)
    1fe0:	fef42023          	sw	a5,-32(s0)
    1fe4:	0100006f          	j	1ff4 <main+0x1fb0>
    1fe8:	fe442783          	lw	a5,-28(s0)
    1fec:	00178793          	addi	a5,a5,1
    1ff0:	fef42223          	sw	a5,-28(s0)
    1ff4:	fe842703          	lw	a4,-24(s0)
    1ff8:	fe442783          	lw	a5,-28(s0)
    1ffc:	00f70733          	add	a4,a4,a5
    2000:	fe042783          	lw	a5,-32(s0)
    2004:	00f707b3          	add	a5,a4,a5
    2008:	14b00593          	li	a1,331
    200c:	00078513          	mv	a0,a5
    2010:	618020ef          	jal	4628 <__modsi3>
    2014:	00050793          	mv	a5,a0
    2018:	fef42423          	sw	a5,-24(s0)
    201c:	fe442703          	lw	a4,-28(s0)
    2020:	f1842783          	lw	a5,-232(s0)
    2024:	e8f74ae3          	blt	a4,a5,1eb8 <main+0x1e74>
    2028:	ffffe7b7          	lui	a5,0xffffe
    202c:	ff078793          	addi	a5,a5,-16 # ffffdff0 <__stack_top+0xffff5ff4>
    2030:	008787b3          	add	a5,a5,s0
    2034:	fa442703          	lw	a4,-92(s0)
    2038:	26e7ac23          	sw	a4,632(a5)
    203c:	ffffe7b7          	lui	a5,0xffffe
    2040:	ff078793          	addi	a5,a5,-16 # ffffdff0 <__stack_top+0xffff5ff4>
    2044:	008787b3          	add	a5,a5,s0
    2048:	2787a703          	lw	a4,632(a5)
    204c:	00070793          	mv	a5,a4
    2050:	00279793          	slli	a5,a5,0x2
    2054:	00e787b3          	add	a5,a5,a4
    2058:	00179793          	slli	a5,a5,0x1
    205c:	00078713          	mv	a4,a5
    2060:	fec42783          	lw	a5,-20(s0)
    2064:	00e787b3          	add	a5,a5,a4
    2068:	fef42623          	sw	a5,-20(s0)
    206c:	000077b7          	lui	a5,0x7
    2070:	01878793          	addi	a5,a5,24 # 7018 <results_array>
    2074:	fa442703          	lw	a4,-92(s0)
    2078:	06e7ae23          	sw	a4,124(a5)
    207c:	fffff7b7          	lui	a5,0xfffff
    2080:	ff078793          	addi	a5,a5,-16 # ffffeff0 <__stack_top+0xffff6ff4>
    2084:	008787b3          	add	a5,a5,s0
    2088:	9387a703          	lw	a4,-1736(a5)
    208c:	000077b7          	lui	a5,0x7
    2090:	01878793          	addi	a5,a5,24 # 7018 <results_array>
    2094:	08e7a023          	sw	a4,128(a5)
    2098:	ffffe7b7          	lui	a5,0xffffe
    209c:	ff078793          	addi	a5,a5,-16 # ffffdff0 <__stack_top+0xffff5ff4>
    20a0:	008787b3          	add	a5,a5,s0
    20a4:	2507a703          	lw	a4,592(a5)
    20a8:	000077b7          	lui	a5,0x7
    20ac:	01878793          	addi	a5,a5,24 # 7018 <results_array>
    20b0:	08e7a223          	sw	a4,132(a5)
    20b4:	000077b7          	lui	a5,0x7
    20b8:	01878793          	addi	a5,a5,24 # 7018 <results_array>
    20bc:	fe842703          	lw	a4,-24(s0)
    20c0:	08e7a423          	sw	a4,136(a5)
    20c4:	fe042223          	sw	zero,-28(s0)
    20c8:	0300006f          	j	20f8 <main+0x20b4>
    20cc:	ffffe7b7          	lui	a5,0xffffe
    20d0:	ff078793          	addi	a5,a5,-16 # ffffdff0 <__stack_top+0xffff5ff4>
    20d4:	00878733          	add	a4,a5,s0
    20d8:	fe442783          	lw	a5,-28(s0)
    20dc:	00279793          	slli	a5,a5,0x2
    20e0:	00f707b3          	add	a5,a4,a5
    20e4:	00100713          	li	a4,1
    20e8:	66e7a223          	sw	a4,1636(a5)
    20ec:	fe442783          	lw	a5,-28(s0)
    20f0:	00178793          	addi	a5,a5,1
    20f4:	fef42223          	sw	a5,-28(s0)
    20f8:	fe442703          	lw	a4,-28(s0)
    20fc:	03100793          	li	a5,49
    2100:	fce7d6e3          	bge	a5,a4,20cc <main+0x2088>
    2104:	ffffe7b7          	lui	a5,0xffffe
    2108:	ff078793          	addi	a5,a5,-16 # ffffdff0 <__stack_top+0xffff5ff4>
    210c:	008787b3          	add	a5,a5,s0
    2110:	6607a223          	sw	zero,1636(a5)
    2114:	ffffe7b7          	lui	a5,0xffffe
    2118:	ff078793          	addi	a5,a5,-16 # ffffdff0 <__stack_top+0xffff5ff4>
    211c:	008787b3          	add	a5,a5,s0
    2120:	6607a423          	sw	zero,1640(a5)
    2124:	00200793          	li	a5,2
    2128:	fef42223          	sw	a5,-28(s0)
    212c:	0c40006f          	j	21f0 <main+0x21ac>
    2130:	ffffe7b7          	lui	a5,0xffffe
    2134:	ff078793          	addi	a5,a5,-16 # ffffdff0 <__stack_top+0xffff5ff4>
    2138:	00878733          	add	a4,a5,s0
    213c:	fe442783          	lw	a5,-28(s0)
    2140:	00279793          	slli	a5,a5,0x2
    2144:	00f707b3          	add	a5,a4,a5
    2148:	6647a783          	lw	a5,1636(a5)
    214c:	08078c63          	beqz	a5,21e4 <main+0x21a0>
    2150:	fe442583          	lw	a1,-28(s0)
    2154:	fe442503          	lw	a0,-28(s0)
    2158:	428020ef          	jal	4580 <__mulsi3>
    215c:	00050793          	mv	a5,a0
    2160:	fef42023          	sw	a5,-32(s0)
    2164:	0740006f          	j	21d8 <main+0x2194>
    2168:	ffffe7b7          	lui	a5,0xffffe
    216c:	ff078793          	addi	a5,a5,-16 # ffffdff0 <__stack_top+0xffff5ff4>
    2170:	00878733          	add	a4,a5,s0
    2174:	fe042783          	lw	a5,-32(s0)
    2178:	00279793          	slli	a5,a5,0x2
    217c:	00f707b3          	add	a5,a4,a5
    2180:	6607a223          	sw	zero,1636(a5)
    2184:	ffffe7b7          	lui	a5,0xffffe
    2188:	ff078793          	addi	a5,a5,-16 # ffffdff0 <__stack_top+0xffff5ff4>
    218c:	008787b3          	add	a5,a5,s0
    2190:	2547a783          	lw	a5,596(a5)
    2194:	00178713          	addi	a4,a5,1
    2198:	ffffe7b7          	lui	a5,0xffffe
    219c:	ff078793          	addi	a5,a5,-16 # ffffdff0 <__stack_top+0xffff5ff4>
    21a0:	008787b3          	add	a5,a5,s0
    21a4:	24e7aa23          	sw	a4,596(a5)
    21a8:	fe842703          	lw	a4,-24(s0)
    21ac:	fe042783          	lw	a5,-32(s0)
    21b0:	00f707b3          	add	a5,a4,a5
    21b4:	13d00593          	li	a1,317
    21b8:	00078513          	mv	a0,a5
    21bc:	46c020ef          	jal	4628 <__modsi3>
    21c0:	00050793          	mv	a5,a0
    21c4:	fef42423          	sw	a5,-24(s0)
    21c8:	fe042703          	lw	a4,-32(s0)
    21cc:	fe442783          	lw	a5,-28(s0)
    21d0:	00f707b3          	add	a5,a4,a5
    21d4:	fef42023          	sw	a5,-32(s0)
    21d8:	fe042703          	lw	a4,-32(s0)
    21dc:	03100793          	li	a5,49
    21e0:	f8e7d4e3          	bge	a5,a4,2168 <main+0x2124>
    21e4:	fe442783          	lw	a5,-28(s0)
    21e8:	00178793          	addi	a5,a5,1
    21ec:	fef42223          	sw	a5,-28(s0)
    21f0:	fe442583          	lw	a1,-28(s0)
    21f4:	fe442503          	lw	a0,-28(s0)
    21f8:	388020ef          	jal	4580 <__mulsi3>
    21fc:	00050793          	mv	a5,a0
    2200:	00078713          	mv	a4,a5
    2204:	03100793          	li	a5,49
    2208:	f2e7d4e3          	bge	a5,a4,2130 <main+0x20ec>
    220c:	fa042023          	sw	zero,-96(s0)
    2210:	f8042e23          	sw	zero,-100(s0)
    2214:	00200793          	li	a5,2
    2218:	fef42223          	sw	a5,-28(s0)
    221c:	04c0006f          	j	2268 <main+0x2224>
    2220:	ffffe7b7          	lui	a5,0xffffe
    2224:	ff078793          	addi	a5,a5,-16 # ffffdff0 <__stack_top+0xffff5ff4>
    2228:	00878733          	add	a4,a5,s0
    222c:	fe442783          	lw	a5,-28(s0)
    2230:	00279793          	slli	a5,a5,0x2
    2234:	00f707b3          	add	a5,a4,a5
    2238:	6647a783          	lw	a5,1636(a5)
    223c:	02078063          	beqz	a5,225c <main+0x2218>
    2240:	fa042783          	lw	a5,-96(s0)
    2244:	00178793          	addi	a5,a5,1
    2248:	faf42023          	sw	a5,-96(s0)
    224c:	f9c42703          	lw	a4,-100(s0)
    2250:	fe442783          	lw	a5,-28(s0)
    2254:	00f707b3          	add	a5,a4,a5
    2258:	f8f42e23          	sw	a5,-100(s0)
    225c:	fe442783          	lw	a5,-28(s0)
    2260:	00178793          	addi	a5,a5,1
    2264:	fef42223          	sw	a5,-28(s0)
    2268:	fe442703          	lw	a4,-28(s0)
    226c:	03100793          	li	a5,49
    2270:	fae7d8e3          	bge	a5,a4,2220 <main+0x21dc>
    2274:	3b100793          	li	a5,945
    2278:	f8f42c23          	sw	a5,-104(s0)
    227c:	f8042a23          	sw	zero,-108(s0)
    2280:	fe042223          	sw	zero,-28(s0)
    2284:	02c0006f          	j	22b0 <main+0x226c>
    2288:	ffffe7b7          	lui	a5,0xffffe
    228c:	ff078793          	addi	a5,a5,-16 # ffffdff0 <__stack_top+0xffff5ff4>
    2290:	00878733          	add	a4,a5,s0
    2294:	fe442783          	lw	a5,-28(s0)
    2298:	00279793          	slli	a5,a5,0x2
    229c:	00f707b3          	add	a5,a4,a5
    22a0:	6207ae23          	sw	zero,1596(a5)
    22a4:	fe442783          	lw	a5,-28(s0)
    22a8:	00178793          	addi	a5,a5,1
    22ac:	fef42223          	sw	a5,-28(s0)
    22b0:	fe442703          	lw	a4,-28(s0)
    22b4:	00900793          	li	a5,9
    22b8:	fce7d8e3          	bge	a5,a4,2288 <main+0x2244>
    22bc:	00200793          	li	a5,2
    22c0:	fef42223          	sw	a5,-28(s0)
    22c4:	0c40006f          	j	2388 <main+0x2344>
    22c8:	ffffe7b7          	lui	a5,0xffffe
    22cc:	ff078793          	addi	a5,a5,-16 # ffffdff0 <__stack_top+0xffff5ff4>
    22d0:	00878733          	add	a4,a5,s0
    22d4:	f9442783          	lw	a5,-108(s0)
    22d8:	00279793          	slli	a5,a5,0x2
    22dc:	00f707b3          	add	a5,a4,a5
    22e0:	fe442703          	lw	a4,-28(s0)
    22e4:	62e7ae23          	sw	a4,1596(a5)
    22e8:	f9442783          	lw	a5,-108(s0)
    22ec:	00178793          	addi	a5,a5,1
    22f0:	f8f42a23          	sw	a5,-108(s0)
    22f4:	fe442583          	lw	a1,-28(s0)
    22f8:	f9842503          	lw	a0,-104(s0)
    22fc:	2a8020ef          	jal	45a4 <__divsi3>
    2300:	00050793          	mv	a5,a0
    2304:	f8f42c23          	sw	a5,-104(s0)
    2308:	ffffe7b7          	lui	a5,0xffffe
    230c:	ff078793          	addi	a5,a5,-16 # ffffdff0 <__stack_top+0xffff5ff4>
    2310:	008787b3          	add	a5,a5,s0
    2314:	2547a783          	lw	a5,596(a5)
    2318:	00178713          	addi	a4,a5,1
    231c:	ffffe7b7          	lui	a5,0xffffe
    2320:	ff078793          	addi	a5,a5,-16 # ffffdff0 <__stack_top+0xffff5ff4>
    2324:	008787b3          	add	a5,a5,s0
    2328:	24e7aa23          	sw	a4,596(a5)
    232c:	fe842703          	lw	a4,-24(s0)
    2330:	fe442783          	lw	a5,-28(s0)
    2334:	00f707b3          	add	a5,a4,a5
    2338:	13900593          	li	a1,313
    233c:	00078513          	mv	a0,a5
    2340:	2e8020ef          	jal	4628 <__modsi3>
    2344:	00050793          	mv	a5,a0
    2348:	fef42423          	sw	a5,-24(s0)
    234c:	f9842783          	lw	a5,-104(s0)
    2350:	fe442583          	lw	a1,-28(s0)
    2354:	00078513          	mv	a0,a5
    2358:	2d0020ef          	jal	4628 <__modsi3>
    235c:	00050793          	mv	a5,a0
    2360:	00079863          	bnez	a5,2370 <main+0x232c>
    2364:	f9442703          	lw	a4,-108(s0)
    2368:	00900793          	li	a5,9
    236c:	f4e7dee3          	bge	a5,a4,22c8 <main+0x2284>
    2370:	f9842703          	lw	a4,-104(s0)
    2374:	00100793          	li	a5,1
    2378:	02f70663          	beq	a4,a5,23a4 <main+0x2360>
    237c:	fe442783          	lw	a5,-28(s0)
    2380:	00178793          	addi	a5,a5,1
    2384:	fef42223          	sw	a5,-28(s0)
    2388:	fe442703          	lw	a4,-28(s0)
    238c:	f9842783          	lw	a5,-104(s0)
    2390:	00e7cc63          	blt	a5,a4,23a8 <main+0x2364>
    2394:	f9442703          	lw	a4,-108(s0)
    2398:	00900793          	li	a5,9
    239c:	fae7d8e3          	bge	a5,a4,234c <main+0x2308>
    23a0:	0080006f          	j	23a8 <main+0x2364>
    23a4:	00000013          	nop
    23a8:	fa042703          	lw	a4,-96(s0)
    23ac:	f9442783          	lw	a5,-108(s0)
    23b0:	00f70733          	add	a4,a4,a5
    23b4:	ffffe7b7          	lui	a5,0xffffe
    23b8:	ff078793          	addi	a5,a5,-16 # ffffdff0 <__stack_top+0xffff5ff4>
    23bc:	008787b3          	add	a5,a5,s0
    23c0:	26e7ae23          	sw	a4,636(a5)
    23c4:	ffffe7b7          	lui	a5,0xffffe
    23c8:	ff078793          	addi	a5,a5,-16 # ffffdff0 <__stack_top+0xffff5ff4>
    23cc:	008787b3          	add	a5,a5,s0
    23d0:	27c7a783          	lw	a5,636(a5)
    23d4:	fec42703          	lw	a4,-20(s0)
    23d8:	00f707b3          	add	a5,a4,a5
    23dc:	fef42623          	sw	a5,-20(s0)
    23e0:	000077b7          	lui	a5,0x7
    23e4:	01878793          	addi	a5,a5,24 # 7018 <results_array>
    23e8:	fa042703          	lw	a4,-96(s0)
    23ec:	08e7a623          	sw	a4,140(a5)
    23f0:	000077b7          	lui	a5,0x7
    23f4:	01878793          	addi	a5,a5,24 # 7018 <results_array>
    23f8:	f9c42703          	lw	a4,-100(s0)
    23fc:	08e7a823          	sw	a4,144(a5)
    2400:	000077b7          	lui	a5,0x7
    2404:	01878793          	addi	a5,a5,24 # 7018 <results_array>
    2408:	f9442703          	lw	a4,-108(s0)
    240c:	08e7aa23          	sw	a4,148(a5)
    2410:	ffffe7b7          	lui	a5,0xffffe
    2414:	ff078793          	addi	a5,a5,-16 # ffffdff0 <__stack_top+0xffff5ff4>
    2418:	008787b3          	add	a5,a5,s0
    241c:	63c7a703          	lw	a4,1596(a5)
    2420:	000077b7          	lui	a5,0x7
    2424:	01878793          	addi	a5,a5,24 # 7018 <results_array>
    2428:	08e7ac23          	sw	a4,152(a5)
    242c:	ffffe7b7          	lui	a5,0xffffe
    2430:	ff078793          	addi	a5,a5,-16 # ffffdff0 <__stack_top+0xffff5ff4>
    2434:	008787b3          	add	a5,a5,s0
    2438:	2547a703          	lw	a4,596(a5)
    243c:	000077b7          	lui	a5,0x7
    2440:	01878793          	addi	a5,a5,24 # 7018 <results_array>
    2444:	08e7ae23          	sw	a4,156(a5)
    2448:	000077b7          	lui	a5,0x7
    244c:	01878793          	addi	a5,a5,24 # 7018 <results_array>
    2450:	fe842703          	lw	a4,-24(s0)
    2454:	0ae7a023          	sw	a4,160(a5)
    2458:	ffffe7b7          	lui	a5,0xffffe
    245c:	ff078793          	addi	a5,a5,-16 # ffffdff0 <__stack_top+0xffff5ff4>
    2460:	008787b3          	add	a5,a5,s0
    2464:	00100713          	li	a4,1
    2468:	5ce7a423          	sw	a4,1480(a5)
    246c:	ffffe7b7          	lui	a5,0xffffe
    2470:	ff078793          	addi	a5,a5,-16 # ffffdff0 <__stack_top+0xffff5ff4>
    2474:	008787b3          	add	a5,a5,s0
    2478:	00100713          	li	a4,1
    247c:	5ce7a623          	sw	a4,1484(a5)
    2480:	ffffe7b7          	lui	a5,0xffffe
    2484:	ff078793          	addi	a5,a5,-16 # ffffdff0 <__stack_top+0xffff5ff4>
    2488:	008787b3          	add	a5,a5,s0
    248c:	00100713          	li	a4,1
    2490:	5ce7a823          	sw	a4,1488(a5)
    2494:	ffffe7b7          	lui	a5,0xffffe
    2498:	ff078793          	addi	a5,a5,-16 # ffffdff0 <__stack_top+0xffff5ff4>
    249c:	008787b3          	add	a5,a5,s0
    24a0:	5c07aa23          	sw	zero,1492(a5)
    24a4:	ffffe7b7          	lui	a5,0xffffe
    24a8:	ff078793          	addi	a5,a5,-16 # ffffdff0 <__stack_top+0xffff5ff4>
    24ac:	008787b3          	add	a5,a5,s0
    24b0:	00100713          	li	a4,1
    24b4:	14e7aa23          	sw	a4,340(a5)
    24b8:	ffffe7b7          	lui	a5,0xffffe
    24bc:	ff078793          	addi	a5,a5,-16 # ffffdff0 <__stack_top+0xffff5ff4>
    24c0:	008787b3          	add	a5,a5,s0
    24c4:	1407ac23          	sw	zero,344(a5)
    24c8:	ffffe7b7          	lui	a5,0xffffe
    24cc:	ff078793          	addi	a5,a5,-16 # ffffdff0 <__stack_top+0xffff5ff4>
    24d0:	008787b3          	add	a5,a5,s0
    24d4:	1407ae23          	sw	zero,348(a5)
    24d8:	ffffe7b7          	lui	a5,0xffffe
    24dc:	ff078793          	addi	a5,a5,-16 # ffffdff0 <__stack_top+0xffff5ff4>
    24e0:	008787b3          	add	a5,a5,s0
    24e4:	00100713          	li	a4,1
    24e8:	16e7a023          	sw	a4,352(a5)
    24ec:	00f00793          	li	a5,15
    24f0:	f8f42823          	sw	a5,-112(s0)
    24f4:	4840006f          	j	2978 <main+0x2934>
    24f8:	f9042783          	lw	a5,-112(s0)
    24fc:	0017f793          	andi	a5,a5,1
    2500:	24078463          	beqz	a5,2748 <main+0x2704>
    2504:	ffffe7b7          	lui	a5,0xffffe
    2508:	ff078793          	addi	a5,a5,-16 # ffffdff0 <__stack_top+0xffff5ff4>
    250c:	008787b3          	add	a5,a5,s0
    2510:	1547a703          	lw	a4,340(a5)
    2514:	ffffe7b7          	lui	a5,0xffffe
    2518:	ff078793          	addi	a5,a5,-16 # ffffdff0 <__stack_top+0xffff5ff4>
    251c:	008787b3          	add	a5,a5,s0
    2520:	5c87a783          	lw	a5,1480(a5)
    2524:	00078593          	mv	a1,a5
    2528:	00070513          	mv	a0,a4
    252c:	054020ef          	jal	4580 <__mulsi3>
    2530:	00050793          	mv	a5,a0
    2534:	00078493          	mv	s1,a5
    2538:	ffffe7b7          	lui	a5,0xffffe
    253c:	ff078793          	addi	a5,a5,-16 # ffffdff0 <__stack_top+0xffff5ff4>
    2540:	008787b3          	add	a5,a5,s0
    2544:	1587a703          	lw	a4,344(a5)
    2548:	ffffe7b7          	lui	a5,0xffffe
    254c:	ff078793          	addi	a5,a5,-16 # ffffdff0 <__stack_top+0xffff5ff4>
    2550:	008787b3          	add	a5,a5,s0
    2554:	5d07a783          	lw	a5,1488(a5)
    2558:	00078593          	mv	a1,a5
    255c:	00070513          	mv	a0,a4
    2560:	020020ef          	jal	4580 <__mulsi3>
    2564:	00050793          	mv	a5,a0
    2568:	00f487b3          	add	a5,s1,a5
    256c:	eaf42e23          	sw	a5,-324(s0)
    2570:	ffffe7b7          	lui	a5,0xffffe
    2574:	ff078793          	addi	a5,a5,-16 # ffffdff0 <__stack_top+0xffff5ff4>
    2578:	008787b3          	add	a5,a5,s0
    257c:	1547a703          	lw	a4,340(a5)
    2580:	ffffe7b7          	lui	a5,0xffffe
    2584:	ff078793          	addi	a5,a5,-16 # ffffdff0 <__stack_top+0xffff5ff4>
    2588:	008787b3          	add	a5,a5,s0
    258c:	5cc7a783          	lw	a5,1484(a5)
    2590:	00078593          	mv	a1,a5
    2594:	00070513          	mv	a0,a4
    2598:	7e9010ef          	jal	4580 <__mulsi3>
    259c:	00050793          	mv	a5,a0
    25a0:	00078493          	mv	s1,a5
    25a4:	ffffe7b7          	lui	a5,0xffffe
    25a8:	ff078793          	addi	a5,a5,-16 # ffffdff0 <__stack_top+0xffff5ff4>
    25ac:	008787b3          	add	a5,a5,s0
    25b0:	1587a703          	lw	a4,344(a5)
    25b4:	ffffe7b7          	lui	a5,0xffffe
    25b8:	ff078793          	addi	a5,a5,-16 # ffffdff0 <__stack_top+0xffff5ff4>
    25bc:	008787b3          	add	a5,a5,s0
    25c0:	5d47a783          	lw	a5,1492(a5)
    25c4:	00078593          	mv	a1,a5
    25c8:	00070513          	mv	a0,a4
    25cc:	7b5010ef          	jal	4580 <__mulsi3>
    25d0:	00050793          	mv	a5,a0
    25d4:	00f487b3          	add	a5,s1,a5
    25d8:	eaf42c23          	sw	a5,-328(s0)
    25dc:	ffffe7b7          	lui	a5,0xffffe
    25e0:	ff078793          	addi	a5,a5,-16 # ffffdff0 <__stack_top+0xffff5ff4>
    25e4:	008787b3          	add	a5,a5,s0
    25e8:	15c7a703          	lw	a4,348(a5)
    25ec:	ffffe7b7          	lui	a5,0xffffe
    25f0:	ff078793          	addi	a5,a5,-16 # ffffdff0 <__stack_top+0xffff5ff4>
    25f4:	008787b3          	add	a5,a5,s0
    25f8:	5c87a783          	lw	a5,1480(a5)
    25fc:	00078593          	mv	a1,a5
    2600:	00070513          	mv	a0,a4
    2604:	77d010ef          	jal	4580 <__mulsi3>
    2608:	00050793          	mv	a5,a0
    260c:	00078493          	mv	s1,a5
    2610:	ffffe7b7          	lui	a5,0xffffe
    2614:	ff078793          	addi	a5,a5,-16 # ffffdff0 <__stack_top+0xffff5ff4>
    2618:	008787b3          	add	a5,a5,s0
    261c:	1607a703          	lw	a4,352(a5)
    2620:	ffffe7b7          	lui	a5,0xffffe
    2624:	ff078793          	addi	a5,a5,-16 # ffffdff0 <__stack_top+0xffff5ff4>
    2628:	008787b3          	add	a5,a5,s0
    262c:	5d07a783          	lw	a5,1488(a5)
    2630:	00078593          	mv	a1,a5
    2634:	00070513          	mv	a0,a4
    2638:	749010ef          	jal	4580 <__mulsi3>
    263c:	00050793          	mv	a5,a0
    2640:	00f487b3          	add	a5,s1,a5
    2644:	eaf42a23          	sw	a5,-332(s0)
    2648:	ffffe7b7          	lui	a5,0xffffe
    264c:	ff078793          	addi	a5,a5,-16 # ffffdff0 <__stack_top+0xffff5ff4>
    2650:	008787b3          	add	a5,a5,s0
    2654:	15c7a703          	lw	a4,348(a5)
    2658:	ffffe7b7          	lui	a5,0xffffe
    265c:	ff078793          	addi	a5,a5,-16 # ffffdff0 <__stack_top+0xffff5ff4>
    2660:	008787b3          	add	a5,a5,s0
    2664:	5cc7a783          	lw	a5,1484(a5)
    2668:	00078593          	mv	a1,a5
    266c:	00070513          	mv	a0,a4
    2670:	711010ef          	jal	4580 <__mulsi3>
    2674:	00050793          	mv	a5,a0
    2678:	00078493          	mv	s1,a5
    267c:	ffffe7b7          	lui	a5,0xffffe
    2680:	ff078793          	addi	a5,a5,-16 # ffffdff0 <__stack_top+0xffff5ff4>
    2684:	008787b3          	add	a5,a5,s0
    2688:	1607a703          	lw	a4,352(a5)
    268c:	ffffe7b7          	lui	a5,0xffffe
    2690:	ff078793          	addi	a5,a5,-16 # ffffdff0 <__stack_top+0xffff5ff4>
    2694:	008787b3          	add	a5,a5,s0
    2698:	5d47a783          	lw	a5,1492(a5)
    269c:	00078593          	mv	a1,a5
    26a0:	00070513          	mv	a0,a4
    26a4:	6dd010ef          	jal	4580 <__mulsi3>
    26a8:	00050793          	mv	a5,a0
    26ac:	00f487b3          	add	a5,s1,a5
    26b0:	eaf42823          	sw	a5,-336(s0)
    26b4:	ffffe7b7          	lui	a5,0xffffe
    26b8:	ff078793          	addi	a5,a5,-16 # ffffdff0 <__stack_top+0xffff5ff4>
    26bc:	008787b3          	add	a5,a5,s0
    26c0:	ebc42703          	lw	a4,-324(s0)
    26c4:	14e7aa23          	sw	a4,340(a5)
    26c8:	ffffe7b7          	lui	a5,0xffffe
    26cc:	ff078793          	addi	a5,a5,-16 # ffffdff0 <__stack_top+0xffff5ff4>
    26d0:	008787b3          	add	a5,a5,s0
    26d4:	eb842703          	lw	a4,-328(s0)
    26d8:	14e7ac23          	sw	a4,344(a5)
    26dc:	ffffe7b7          	lui	a5,0xffffe
    26e0:	ff078793          	addi	a5,a5,-16 # ffffdff0 <__stack_top+0xffff5ff4>
    26e4:	008787b3          	add	a5,a5,s0
    26e8:	eb442703          	lw	a4,-332(s0)
    26ec:	14e7ae23          	sw	a4,348(a5)
    26f0:	ffffe7b7          	lui	a5,0xffffe
    26f4:	ff078793          	addi	a5,a5,-16 # ffffdff0 <__stack_top+0xffff5ff4>
    26f8:	008787b3          	add	a5,a5,s0
    26fc:	eb042703          	lw	a4,-336(s0)
    2700:	16e7a023          	sw	a4,352(a5)
    2704:	ffffe7b7          	lui	a5,0xffffe
    2708:	ff078793          	addi	a5,a5,-16 # ffffdff0 <__stack_top+0xffff5ff4>
    270c:	008787b3          	add	a5,a5,s0
    2710:	2587a783          	lw	a5,600(a5)
    2714:	00178713          	addi	a4,a5,1
    2718:	ffffe7b7          	lui	a5,0xffffe
    271c:	ff078793          	addi	a5,a5,-16 # ffffdff0 <__stack_top+0xffff5ff4>
    2720:	008787b3          	add	a5,a5,s0
    2724:	24e7ac23          	sw	a4,600(a5)
    2728:	fe842703          	lw	a4,-24(s0)
    272c:	ebc42783          	lw	a5,-324(s0)
    2730:	00f707b3          	add	a5,a4,a5
    2734:	13300593          	li	a1,307
    2738:	00078513          	mv	a0,a5
    273c:	6ed010ef          	jal	4628 <__modsi3>
    2740:	00050793          	mv	a5,a0
    2744:	fef42423          	sw	a5,-24(s0)
    2748:	ffffe7b7          	lui	a5,0xffffe
    274c:	ff078793          	addi	a5,a5,-16 # ffffdff0 <__stack_top+0xffff5ff4>
    2750:	008787b3          	add	a5,a5,s0
    2754:	5c87a703          	lw	a4,1480(a5)
    2758:	ffffe7b7          	lui	a5,0xffffe
    275c:	ff078793          	addi	a5,a5,-16 # ffffdff0 <__stack_top+0xffff5ff4>
    2760:	008787b3          	add	a5,a5,s0
    2764:	5c87a783          	lw	a5,1480(a5)
    2768:	00078593          	mv	a1,a5
    276c:	00070513          	mv	a0,a4
    2770:	611010ef          	jal	4580 <__mulsi3>
    2774:	00050793          	mv	a5,a0
    2778:	00078493          	mv	s1,a5
    277c:	ffffe7b7          	lui	a5,0xffffe
    2780:	ff078793          	addi	a5,a5,-16 # ffffdff0 <__stack_top+0xffff5ff4>
    2784:	008787b3          	add	a5,a5,s0
    2788:	5cc7a703          	lw	a4,1484(a5)
    278c:	ffffe7b7          	lui	a5,0xffffe
    2790:	ff078793          	addi	a5,a5,-16 # ffffdff0 <__stack_top+0xffff5ff4>
    2794:	008787b3          	add	a5,a5,s0
    2798:	5d07a783          	lw	a5,1488(a5)
    279c:	00078593          	mv	a1,a5
    27a0:	00070513          	mv	a0,a4
    27a4:	5dd010ef          	jal	4580 <__mulsi3>
    27a8:	00050793          	mv	a5,a0
    27ac:	00f487b3          	add	a5,s1,a5
    27b0:	eaf42e23          	sw	a5,-324(s0)
    27b4:	ffffe7b7          	lui	a5,0xffffe
    27b8:	ff078793          	addi	a5,a5,-16 # ffffdff0 <__stack_top+0xffff5ff4>
    27bc:	008787b3          	add	a5,a5,s0
    27c0:	5c87a703          	lw	a4,1480(a5)
    27c4:	ffffe7b7          	lui	a5,0xffffe
    27c8:	ff078793          	addi	a5,a5,-16 # ffffdff0 <__stack_top+0xffff5ff4>
    27cc:	008787b3          	add	a5,a5,s0
    27d0:	5cc7a783          	lw	a5,1484(a5)
    27d4:	00078593          	mv	a1,a5
    27d8:	00070513          	mv	a0,a4
    27dc:	5a5010ef          	jal	4580 <__mulsi3>
    27e0:	00050793          	mv	a5,a0
    27e4:	00078493          	mv	s1,a5
    27e8:	ffffe7b7          	lui	a5,0xffffe
    27ec:	ff078793          	addi	a5,a5,-16 # ffffdff0 <__stack_top+0xffff5ff4>
    27f0:	008787b3          	add	a5,a5,s0
    27f4:	5cc7a703          	lw	a4,1484(a5)
    27f8:	ffffe7b7          	lui	a5,0xffffe
    27fc:	ff078793          	addi	a5,a5,-16 # ffffdff0 <__stack_top+0xffff5ff4>
    2800:	008787b3          	add	a5,a5,s0
    2804:	5d47a783          	lw	a5,1492(a5)
    2808:	00078593          	mv	a1,a5
    280c:	00070513          	mv	a0,a4
    2810:	571010ef          	jal	4580 <__mulsi3>
    2814:	00050793          	mv	a5,a0
    2818:	00f487b3          	add	a5,s1,a5
    281c:	eaf42c23          	sw	a5,-328(s0)
    2820:	ffffe7b7          	lui	a5,0xffffe
    2824:	ff078793          	addi	a5,a5,-16 # ffffdff0 <__stack_top+0xffff5ff4>
    2828:	008787b3          	add	a5,a5,s0
    282c:	5d07a703          	lw	a4,1488(a5)
    2830:	ffffe7b7          	lui	a5,0xffffe
    2834:	ff078793          	addi	a5,a5,-16 # ffffdff0 <__stack_top+0xffff5ff4>
    2838:	008787b3          	add	a5,a5,s0
    283c:	5c87a783          	lw	a5,1480(a5)
    2840:	00078593          	mv	a1,a5
    2844:	00070513          	mv	a0,a4
    2848:	539010ef          	jal	4580 <__mulsi3>
    284c:	00050793          	mv	a5,a0
    2850:	00078493          	mv	s1,a5
    2854:	ffffe7b7          	lui	a5,0xffffe
    2858:	ff078793          	addi	a5,a5,-16 # ffffdff0 <__stack_top+0xffff5ff4>
    285c:	008787b3          	add	a5,a5,s0
    2860:	5d47a703          	lw	a4,1492(a5)
    2864:	ffffe7b7          	lui	a5,0xffffe
    2868:	ff078793          	addi	a5,a5,-16 # ffffdff0 <__stack_top+0xffff5ff4>
    286c:	008787b3          	add	a5,a5,s0
    2870:	5d07a783          	lw	a5,1488(a5)
    2874:	00078593          	mv	a1,a5
    2878:	00070513          	mv	a0,a4
    287c:	505010ef          	jal	4580 <__mulsi3>
    2880:	00050793          	mv	a5,a0
    2884:	00f487b3          	add	a5,s1,a5
    2888:	eaf42a23          	sw	a5,-332(s0)
    288c:	ffffe7b7          	lui	a5,0xffffe
    2890:	ff078793          	addi	a5,a5,-16 # ffffdff0 <__stack_top+0xffff5ff4>
    2894:	008787b3          	add	a5,a5,s0
    2898:	5d07a703          	lw	a4,1488(a5)
    289c:	ffffe7b7          	lui	a5,0xffffe
    28a0:	ff078793          	addi	a5,a5,-16 # ffffdff0 <__stack_top+0xffff5ff4>
    28a4:	008787b3          	add	a5,a5,s0
    28a8:	5cc7a783          	lw	a5,1484(a5)
    28ac:	00078593          	mv	a1,a5
    28b0:	00070513          	mv	a0,a4
    28b4:	4cd010ef          	jal	4580 <__mulsi3>
    28b8:	00050793          	mv	a5,a0
    28bc:	00078493          	mv	s1,a5
    28c0:	ffffe7b7          	lui	a5,0xffffe
    28c4:	ff078793          	addi	a5,a5,-16 # ffffdff0 <__stack_top+0xffff5ff4>
    28c8:	008787b3          	add	a5,a5,s0
    28cc:	5d47a703          	lw	a4,1492(a5)
    28d0:	ffffe7b7          	lui	a5,0xffffe
    28d4:	ff078793          	addi	a5,a5,-16 # ffffdff0 <__stack_top+0xffff5ff4>
    28d8:	008787b3          	add	a5,a5,s0
    28dc:	5d47a783          	lw	a5,1492(a5)
    28e0:	00078593          	mv	a1,a5
    28e4:	00070513          	mv	a0,a4
    28e8:	499010ef          	jal	4580 <__mulsi3>
    28ec:	00050793          	mv	a5,a0
    28f0:	00f487b3          	add	a5,s1,a5
    28f4:	eaf42623          	sw	a5,-340(s0)
    28f8:	ffffe7b7          	lui	a5,0xffffe
    28fc:	ff078793          	addi	a5,a5,-16 # ffffdff0 <__stack_top+0xffff5ff4>
    2900:	008787b3          	add	a5,a5,s0
    2904:	ebc42703          	lw	a4,-324(s0)
    2908:	5ce7a423          	sw	a4,1480(a5)
    290c:	ffffe7b7          	lui	a5,0xffffe
    2910:	ff078793          	addi	a5,a5,-16 # ffffdff0 <__stack_top+0xffff5ff4>
    2914:	008787b3          	add	a5,a5,s0
    2918:	eb842703          	lw	a4,-328(s0)
    291c:	5ce7a623          	sw	a4,1484(a5)
    2920:	ffffe7b7          	lui	a5,0xffffe
    2924:	ff078793          	addi	a5,a5,-16 # ffffdff0 <__stack_top+0xffff5ff4>
    2928:	008787b3          	add	a5,a5,s0
    292c:	eb442703          	lw	a4,-332(s0)
    2930:	5ce7a823          	sw	a4,1488(a5)
    2934:	ffffe7b7          	lui	a5,0xffffe
    2938:	ff078793          	addi	a5,a5,-16 # ffffdff0 <__stack_top+0xffff5ff4>
    293c:	008787b3          	add	a5,a5,s0
    2940:	eac42703          	lw	a4,-340(s0)
    2944:	5ce7aa23          	sw	a4,1492(a5)
    2948:	f9042783          	lw	a5,-112(s0)
    294c:	4017d793          	srai	a5,a5,0x1
    2950:	f8f42823          	sw	a5,-112(s0)
    2954:	ffffe7b7          	lui	a5,0xffffe
    2958:	ff078793          	addi	a5,a5,-16 # ffffdff0 <__stack_top+0xffff5ff4>
    295c:	008787b3          	add	a5,a5,s0
    2960:	2587a783          	lw	a5,600(a5)
    2964:	00178713          	addi	a4,a5,1
    2968:	ffffe7b7          	lui	a5,0xffffe
    296c:	ff078793          	addi	a5,a5,-16 # ffffdff0 <__stack_top+0xffff5ff4>
    2970:	008787b3          	add	a5,a5,s0
    2974:	24e7ac23          	sw	a4,600(a5)
    2978:	f9042783          	lw	a5,-112(s0)
    297c:	b6f04ee3          	bgtz	a5,24f8 <main+0x24b4>
    2980:	ffffe7b7          	lui	a5,0xffffe
    2984:	ff078793          	addi	a5,a5,-16 # ffffdff0 <__stack_top+0xffff5ff4>
    2988:	008787b3          	add	a5,a5,s0
    298c:	1587a783          	lw	a5,344(a5)
    2990:	f0f42a23          	sw	a5,-236(s0)
    2994:	f1442783          	lw	a5,-236(s0)
    2998:	3e800593          	li	a1,1000
    299c:	00078513          	mv	a0,a5
    29a0:	489010ef          	jal	4628 <__modsi3>
    29a4:	00050793          	mv	a5,a0
    29a8:	00078713          	mv	a4,a5
    29ac:	ffffe7b7          	lui	a5,0xffffe
    29b0:	ff078793          	addi	a5,a5,-16 # ffffdff0 <__stack_top+0xffff5ff4>
    29b4:	008787b3          	add	a5,a5,s0
    29b8:	28e7a023          	sw	a4,640(a5)
    29bc:	ffffe7b7          	lui	a5,0xffffe
    29c0:	ff078793          	addi	a5,a5,-16 # ffffdff0 <__stack_top+0xffff5ff4>
    29c4:	008787b3          	add	a5,a5,s0
    29c8:	2807a783          	lw	a5,640(a5)
    29cc:	fec42703          	lw	a4,-20(s0)
    29d0:	00f707b3          	add	a5,a4,a5
    29d4:	fef42623          	sw	a5,-20(s0)
    29d8:	000077b7          	lui	a5,0x7
    29dc:	01878793          	addi	a5,a5,24 # 7018 <results_array>
    29e0:	f1442703          	lw	a4,-236(s0)
    29e4:	0ae7a223          	sw	a4,164(a5)
    29e8:	ffffe7b7          	lui	a5,0xffffe
    29ec:	ff078793          	addi	a5,a5,-16 # ffffdff0 <__stack_top+0xffff5ff4>
    29f0:	008787b3          	add	a5,a5,s0
    29f4:	1547a703          	lw	a4,340(a5)
    29f8:	000077b7          	lui	a5,0x7
    29fc:	01878793          	addi	a5,a5,24 # 7018 <results_array>
    2a00:	0ae7a423          	sw	a4,168(a5)
    2a04:	ffffe7b7          	lui	a5,0xffffe
    2a08:	ff078793          	addi	a5,a5,-16 # ffffdff0 <__stack_top+0xffff5ff4>
    2a0c:	008787b3          	add	a5,a5,s0
    2a10:	2587a703          	lw	a4,600(a5)
    2a14:	000077b7          	lui	a5,0x7
    2a18:	01878793          	addi	a5,a5,24 # 7018 <results_array>
    2a1c:	0ae7a623          	sw	a4,172(a5)
    2a20:	000077b7          	lui	a5,0x7
    2a24:	01878793          	addi	a5,a5,24 # 7018 <results_array>
    2a28:	fe842703          	lw	a4,-24(s0)
    2a2c:	0ae7a823          	sw	a4,176(a5)
    2a30:	fe042223          	sw	zero,-28(s0)
    2a34:	0600006f          	j	2a94 <main+0x2a50>
    2a38:	fe442703          	lw	a4,-28(s0)
    2a3c:	00070793          	mv	a5,a4
    2a40:	00379793          	slli	a5,a5,0x3
    2a44:	00e787b3          	add	a5,a5,a4
    2a48:	00279793          	slli	a5,a5,0x2
    2a4c:	00e787b3          	add	a5,a5,a4
    2a50:	03d78713          	addi	a4,a5,61
    2a54:	41f75793          	srai	a5,a4,0x1f
    2a58:	0167d793          	srli	a5,a5,0x16
    2a5c:	00f70733          	add	a4,a4,a5
    2a60:	3ff77713          	andi	a4,a4,1023
    2a64:	40f707b3          	sub	a5,a4,a5
    2a68:	00078693          	mv	a3,a5
    2a6c:	ffffe7b7          	lui	a5,0xffffe
    2a70:	ff078793          	addi	a5,a5,-16 # ffffdff0 <__stack_top+0xffff5ff4>
    2a74:	00878733          	add	a4,a5,s0
    2a78:	fe442783          	lw	a5,-28(s0)
    2a7c:	00279793          	slli	a5,a5,0x2
    2a80:	00f707b3          	add	a5,a4,a5
    2a84:	56d7ac23          	sw	a3,1400(a5)
    2a88:	fe442783          	lw	a5,-28(s0)
    2a8c:	00178793          	addi	a5,a5,1
    2a90:	fef42223          	sw	a5,-28(s0)
    2a94:	fe442703          	lw	a4,-28(s0)
    2a98:	01300793          	li	a5,19
    2a9c:	f8e7dee3          	bge	a5,a4,2a38 <main+0x29f4>
    2aa0:	fe042223          	sw	zero,-28(s0)
    2aa4:	02c0006f          	j	2ad0 <main+0x2a8c>
    2aa8:	ffffe7b7          	lui	a5,0xffffe
    2aac:	ff078793          	addi	a5,a5,-16 # ffffdff0 <__stack_top+0xffff5ff4>
    2ab0:	00878733          	add	a4,a5,s0
    2ab4:	fe442783          	lw	a5,-28(s0)
    2ab8:	00279793          	slli	a5,a5,0x2
    2abc:	00f707b3          	add	a5,a4,a5
    2ac0:	5407a823          	sw	zero,1360(a5)
    2ac4:	fe442783          	lw	a5,-28(s0)
    2ac8:	00178793          	addi	a5,a5,1
    2acc:	fef42223          	sw	a5,-28(s0)
    2ad0:	fe442703          	lw	a4,-28(s0)
    2ad4:	00900793          	li	a5,9
    2ad8:	fce7d8e3          	bge	a5,a4,2aa8 <main+0x2a64>
    2adc:	fe042223          	sw	zero,-28(s0)
    2ae0:	11c0006f          	j	2bfc <main+0x2bb8>
    2ae4:	ffffe7b7          	lui	a5,0xffffe
    2ae8:	ff078793          	addi	a5,a5,-16 # ffffdff0 <__stack_top+0xffff5ff4>
    2aec:	00878733          	add	a4,a5,s0
    2af0:	fe442783          	lw	a5,-28(s0)
    2af4:	00279793          	slli	a5,a5,0x2
    2af8:	00f707b3          	add	a5,a4,a5
    2afc:	5787a783          	lw	a5,1400(a5)
    2b00:	f8f42623          	sw	a5,-116(s0)
    2b04:	00900793          	li	a5,9
    2b08:	fef42023          	sw	a5,-32(s0)
    2b0c:	0dc0006f          	j	2be8 <main+0x2ba4>
    2b10:	fe042783          	lw	a5,-32(s0)
    2b14:	f8c42703          	lw	a4,-116(s0)
    2b18:	40f757b3          	sra	a5,a4,a5
    2b1c:	0017f793          	andi	a5,a5,1
    2b20:	0a078c63          	beqz	a5,2bd8 <main+0x2b94>
    2b24:	ffffe7b7          	lui	a5,0xffffe
    2b28:	ff078793          	addi	a5,a5,-16 # ffffdff0 <__stack_top+0xffff5ff4>
    2b2c:	00878733          	add	a4,a5,s0
    2b30:	fe042783          	lw	a5,-32(s0)
    2b34:	00279793          	slli	a5,a5,0x2
    2b38:	00f707b3          	add	a5,a4,a5
    2b3c:	5507a783          	lw	a5,1360(a5)
    2b40:	02079463          	bnez	a5,2b68 <main+0x2b24>
    2b44:	ffffe7b7          	lui	a5,0xffffe
    2b48:	ff078793          	addi	a5,a5,-16 # ffffdff0 <__stack_top+0xffff5ff4>
    2b4c:	00878733          	add	a4,a5,s0
    2b50:	fe042783          	lw	a5,-32(s0)
    2b54:	00279793          	slli	a5,a5,0x2
    2b58:	00f707b3          	add	a5,a4,a5
    2b5c:	f8c42703          	lw	a4,-116(s0)
    2b60:	54e7a823          	sw	a4,1360(a5)
    2b64:	08c0006f          	j	2bf0 <main+0x2bac>
    2b68:	ffffe7b7          	lui	a5,0xffffe
    2b6c:	ff078793          	addi	a5,a5,-16 # ffffdff0 <__stack_top+0xffff5ff4>
    2b70:	00878733          	add	a4,a5,s0
    2b74:	fe042783          	lw	a5,-32(s0)
    2b78:	00279793          	slli	a5,a5,0x2
    2b7c:	00f707b3          	add	a5,a4,a5
    2b80:	5507a783          	lw	a5,1360(a5)
    2b84:	f8c42703          	lw	a4,-116(s0)
    2b88:	00f747b3          	xor	a5,a4,a5
    2b8c:	f8f42623          	sw	a5,-116(s0)
    2b90:	ffffe7b7          	lui	a5,0xffffe
    2b94:	ff078793          	addi	a5,a5,-16 # ffffdff0 <__stack_top+0xffff5ff4>
    2b98:	008787b3          	add	a5,a5,s0
    2b9c:	25c7a783          	lw	a5,604(a5)
    2ba0:	00178713          	addi	a4,a5,1
    2ba4:	ffffe7b7          	lui	a5,0xffffe
    2ba8:	ff078793          	addi	a5,a5,-16 # ffffdff0 <__stack_top+0xffff5ff4>
    2bac:	008787b3          	add	a5,a5,s0
    2bb0:	24e7ae23          	sw	a4,604(a5)
    2bb4:	fe842703          	lw	a4,-24(s0)
    2bb8:	f8c42783          	lw	a5,-116(s0)
    2bbc:	00f707b3          	add	a5,a4,a5
    2bc0:	12500593          	li	a1,293
    2bc4:	00078513          	mv	a0,a5
    2bc8:	261010ef          	jal	4628 <__modsi3>
    2bcc:	00050793          	mv	a5,a0
    2bd0:	fef42423          	sw	a5,-24(s0)
    2bd4:	0080006f          	j	2bdc <main+0x2b98>
    2bd8:	00000013          	nop
    2bdc:	fe042783          	lw	a5,-32(s0)
    2be0:	fff78793          	addi	a5,a5,-1
    2be4:	fef42023          	sw	a5,-32(s0)
    2be8:	fe042783          	lw	a5,-32(s0)
    2bec:	f207d2e3          	bgez	a5,2b10 <main+0x2acc>
    2bf0:	fe442783          	lw	a5,-28(s0)
    2bf4:	00178793          	addi	a5,a5,1
    2bf8:	fef42223          	sw	a5,-28(s0)
    2bfc:	fe442703          	lw	a4,-28(s0)
    2c00:	01300793          	li	a5,19
    2c04:	eee7d0e3          	bge	a5,a4,2ae4 <main+0x2aa0>
    2c08:	f8042423          	sw	zero,-120(s0)
    2c0c:	00900793          	li	a5,9
    2c10:	fef42223          	sw	a5,-28(s0)
    2c14:	0880006f          	j	2c9c <main+0x2c58>
    2c18:	ffffe7b7          	lui	a5,0xffffe
    2c1c:	ff078793          	addi	a5,a5,-16 # ffffdff0 <__stack_top+0xffff5ff4>
    2c20:	00878733          	add	a4,a5,s0
    2c24:	fe442783          	lw	a5,-28(s0)
    2c28:	00279793          	slli	a5,a5,0x2
    2c2c:	00f707b3          	add	a5,a4,a5
    2c30:	5507a703          	lw	a4,1360(a5)
    2c34:	f8842783          	lw	a5,-120(s0)
    2c38:	00f74733          	xor	a4,a4,a5
    2c3c:	f8842783          	lw	a5,-120(s0)
    2c40:	00e7d463          	bge	a5,a4,2c48 <main+0x2c04>
    2c44:	00070793          	mv	a5,a4
    2c48:	f8f42423          	sw	a5,-120(s0)
    2c4c:	ffffe7b7          	lui	a5,0xffffe
    2c50:	ff078793          	addi	a5,a5,-16 # ffffdff0 <__stack_top+0xffff5ff4>
    2c54:	00878733          	add	a4,a5,s0
    2c58:	fe442783          	lw	a5,-28(s0)
    2c5c:	00279793          	slli	a5,a5,0x2
    2c60:	00f707b3          	add	a5,a4,a5
    2c64:	5507a783          	lw	a5,1360(a5)
    2c68:	02078463          	beqz	a5,2c90 <main+0x2c4c>
    2c6c:	ffffe7b7          	lui	a5,0xffffe
    2c70:	ff078793          	addi	a5,a5,-16 # ffffdff0 <__stack_top+0xffff5ff4>
    2c74:	008787b3          	add	a5,a5,s0
    2c78:	25c7a783          	lw	a5,604(a5)
    2c7c:	00178713          	addi	a4,a5,1
    2c80:	ffffe7b7          	lui	a5,0xffffe
    2c84:	ff078793          	addi	a5,a5,-16 # ffffdff0 <__stack_top+0xffff5ff4>
    2c88:	008787b3          	add	a5,a5,s0
    2c8c:	24e7ae23          	sw	a4,604(a5)
    2c90:	fe442783          	lw	a5,-28(s0)
    2c94:	fff78793          	addi	a5,a5,-1
    2c98:	fef42223          	sw	a5,-28(s0)
    2c9c:	fe442783          	lw	a5,-28(s0)
    2ca0:	f607dce3          	bgez	a5,2c18 <main+0x2bd4>
    2ca4:	fe042223          	sw	zero,-28(s0)
    2ca8:	0740006f          	j	2d1c <main+0x2cd8>
    2cac:	fe442783          	lw	a5,-28(s0)
    2cb0:	4017d713          	srai	a4,a5,0x1
    2cb4:	fe442783          	lw	a5,-28(s0)
    2cb8:	00f74733          	xor	a4,a4,a5
    2cbc:	ffffe7b7          	lui	a5,0xffffe
    2cc0:	ff078793          	addi	a5,a5,-16 # ffffdff0 <__stack_top+0xffff5ff4>
    2cc4:	008786b3          	add	a3,a5,s0
    2cc8:	fe442783          	lw	a5,-28(s0)
    2ccc:	00279793          	slli	a5,a5,0x2
    2cd0:	00f687b3          	add	a5,a3,a5
    2cd4:	4ce7a823          	sw	a4,1232(a5)
    2cd8:	ffffe7b7          	lui	a5,0xffffe
    2cdc:	ff078793          	addi	a5,a5,-16 # ffffdff0 <__stack_top+0xffff5ff4>
    2ce0:	00878733          	add	a4,a5,s0
    2ce4:	fe442783          	lw	a5,-28(s0)
    2ce8:	00279793          	slli	a5,a5,0x2
    2cec:	00f707b3          	add	a5,a4,a5
    2cf0:	4d07a703          	lw	a4,1232(a5)
    2cf4:	fe842783          	lw	a5,-24(s0)
    2cf8:	00f707b3          	add	a5,a4,a5
    2cfc:	11b00593          	li	a1,283
    2d00:	00078513          	mv	a0,a5
    2d04:	125010ef          	jal	4628 <__modsi3>
    2d08:	00050793          	mv	a5,a0
    2d0c:	fef42423          	sw	a5,-24(s0)
    2d10:	fe442783          	lw	a5,-28(s0)
    2d14:	00178793          	addi	a5,a5,1
    2d18:	fef42223          	sw	a5,-28(s0)
    2d1c:	fe442703          	lw	a4,-28(s0)
    2d20:	00f00793          	li	a5,15
    2d24:	f8e7d4e3          	bge	a5,a4,2cac <main+0x2c68>
    2d28:	ffffe7b7          	lui	a5,0xffffe
    2d2c:	ff078793          	addi	a5,a5,-16 # ffffdff0 <__stack_top+0xffff5ff4>
    2d30:	008787b3          	add	a5,a5,s0
    2d34:	f8842703          	lw	a4,-120(s0)
    2d38:	28e7a223          	sw	a4,644(a5)
    2d3c:	ffffe7b7          	lui	a5,0xffffe
    2d40:	ff078793          	addi	a5,a5,-16 # ffffdff0 <__stack_top+0xffff5ff4>
    2d44:	008787b3          	add	a5,a5,s0
    2d48:	2847a783          	lw	a5,644(a5)
    2d4c:	06400593          	li	a1,100
    2d50:	00078513          	mv	a0,a5
    2d54:	0d5010ef          	jal	4628 <__modsi3>
    2d58:	00050793          	mv	a5,a0
    2d5c:	00078713          	mv	a4,a5
    2d60:	fec42783          	lw	a5,-20(s0)
    2d64:	00e787b3          	add	a5,a5,a4
    2d68:	fef42623          	sw	a5,-20(s0)
    2d6c:	000077b7          	lui	a5,0x7
    2d70:	01878793          	addi	a5,a5,24 # 7018 <results_array>
    2d74:	f8842703          	lw	a4,-120(s0)
    2d78:	0ae7aa23          	sw	a4,180(a5)
    2d7c:	ffffe7b7          	lui	a5,0xffffe
    2d80:	ff078793          	addi	a5,a5,-16 # ffffdff0 <__stack_top+0xffff5ff4>
    2d84:	008787b3          	add	a5,a5,s0
    2d88:	5647a703          	lw	a4,1380(a5)
    2d8c:	000077b7          	lui	a5,0x7
    2d90:	01878793          	addi	a5,a5,24 # 7018 <results_array>
    2d94:	0ae7ac23          	sw	a4,184(a5)
    2d98:	ffffe7b7          	lui	a5,0xffffe
    2d9c:	ff078793          	addi	a5,a5,-16 # ffffdff0 <__stack_top+0xffff5ff4>
    2da0:	008787b3          	add	a5,a5,s0
    2da4:	4f87a703          	lw	a4,1272(a5)
    2da8:	000077b7          	lui	a5,0x7
    2dac:	01878793          	addi	a5,a5,24 # 7018 <results_array>
    2db0:	0ae7ae23          	sw	a4,188(a5)
    2db4:	ffffe7b7          	lui	a5,0xffffe
    2db8:	ff078793          	addi	a5,a5,-16 # ffffdff0 <__stack_top+0xffff5ff4>
    2dbc:	008787b3          	add	a5,a5,s0
    2dc0:	25c7a703          	lw	a4,604(a5)
    2dc4:	000077b7          	lui	a5,0x7
    2dc8:	01878793          	addi	a5,a5,24 # 7018 <results_array>
    2dcc:	0ce7a023          	sw	a4,192(a5)
    2dd0:	000077b7          	lui	a5,0x7
    2dd4:	01878793          	addi	a5,a5,24 # 7018 <results_array>
    2dd8:	fe842703          	lw	a4,-24(s0)
    2ddc:	0ce7a223          	sw	a4,196(a5)
    2de0:	fe042223          	sw	zero,-28(s0)
    2de4:	0480006f          	j	2e2c <main+0x2de8>
    2de8:	ffffe7b7          	lui	a5,0xffffe
    2dec:	ff078793          	addi	a5,a5,-16 # ffffdff0 <__stack_top+0xffff5ff4>
    2df0:	00878733          	add	a4,a5,s0
    2df4:	fe442783          	lw	a5,-28(s0)
    2df8:	00279793          	slli	a5,a5,0x2
    2dfc:	00f707b3          	add	a5,a4,a5
    2e00:	3807a223          	sw	zero,900(a5)
    2e04:	ffffe7b7          	lui	a5,0xffffe
    2e08:	ff078793          	addi	a5,a5,-16 # ffffdff0 <__stack_top+0xffff5ff4>
    2e0c:	00878733          	add	a4,a5,s0
    2e10:	fe442783          	lw	a5,-28(s0)
    2e14:	00279793          	slli	a5,a5,0x2
    2e18:	00f707b3          	add	a5,a4,a5
    2e1c:	3a07a423          	sw	zero,936(a5)
    2e20:	fe442783          	lw	a5,-28(s0)
    2e24:	00178793          	addi	a5,a5,1
    2e28:	fef42223          	sw	a5,-28(s0)
    2e2c:	fe442703          	lw	a4,-28(s0)
    2e30:	00800793          	li	a5,8
    2e34:	fae7dae3          	bge	a5,a4,2de8 <main+0x2da4>
    2e38:	ffffe7b7          	lui	a5,0xffffe
    2e3c:	ff078793          	addi	a5,a5,-16 # ffffdff0 <__stack_top+0xffff5ff4>
    2e40:	008787b3          	add	a5,a5,s0
    2e44:	00100713          	li	a4,1
    2e48:	38e7a223          	sw	a4,900(a5)
    2e4c:	ffffe7b7          	lui	a5,0xffffe
    2e50:	ff078793          	addi	a5,a5,-16 # ffffdff0 <__stack_top+0xffff5ff4>
    2e54:	008787b3          	add	a5,a5,s0
    2e58:	00100713          	li	a4,1
    2e5c:	38e7aa23          	sw	a4,916(a5)
    2e60:	ffffe7b7          	lui	a5,0xffffe
    2e64:	ff078793          	addi	a5,a5,-16 # ffffdff0 <__stack_top+0xffff5ff4>
    2e68:	008787b3          	add	a5,a5,s0
    2e6c:	00200713          	li	a4,2
    2e70:	38e7a423          	sw	a4,904(a5)
    2e74:	ffffe7b7          	lui	a5,0xffffe
    2e78:	ff078793          	addi	a5,a5,-16 # ffffdff0 <__stack_top+0xffff5ff4>
    2e7c:	008787b3          	add	a5,a5,s0
    2e80:	00200713          	li	a4,2
    2e84:	38e7a823          	sw	a4,912(a5)
    2e88:	f8042223          	sw	zero,-124(s0)
    2e8c:	fe042223          	sw	zero,-28(s0)
    2e90:	4000006f          	j	3290 <main+0x324c>
    2e94:	ffffe7b7          	lui	a5,0xffffe
    2e98:	ff078793          	addi	a5,a5,-16 # ffffdff0 <__stack_top+0xffff5ff4>
    2e9c:	00878733          	add	a4,a5,s0
    2ea0:	fe442783          	lw	a5,-28(s0)
    2ea4:	00279793          	slli	a5,a5,0x2
    2ea8:	00f707b3          	add	a5,a4,a5
    2eac:	3847a783          	lw	a5,900(a5)
    2eb0:	3c079a63          	bnez	a5,3284 <main+0x3240>
    2eb4:	ffffe7b7          	lui	a5,0xffffe
    2eb8:	ff078793          	addi	a5,a5,-16 # ffffdff0 <__stack_top+0xffff5ff4>
    2ebc:	00878733          	add	a4,a5,s0
    2ec0:	fe442783          	lw	a5,-28(s0)
    2ec4:	00279793          	slli	a5,a5,0x2
    2ec8:	00f707b3          	add	a5,a4,a5
    2ecc:	00100713          	li	a4,1
    2ed0:	38e7a223          	sw	a4,900(a5)
    2ed4:	f8042023          	sw	zero,-128(s0)
    2ed8:	fe042023          	sw	zero,-32(s0)
    2edc:	1080006f          	j	2fe4 <main+0x2fa0>
    2ee0:	fe042703          	lw	a4,-32(s0)
    2ee4:	00070793          	mv	a5,a4
    2ee8:	00179793          	slli	a5,a5,0x1
    2eec:	00e787b3          	add	a5,a5,a4
    2ef0:	ffffe737          	lui	a4,0xffffe
    2ef4:	ff070713          	addi	a4,a4,-16 # ffffdff0 <__stack_top+0xffff5ff4>
    2ef8:	00870733          	add	a4,a4,s0
    2efc:	00279793          	slli	a5,a5,0x2
    2f00:	00f707b3          	add	a5,a4,a5
    2f04:	3847a683          	lw	a3,900(a5)
    2f08:	fe042703          	lw	a4,-32(s0)
    2f0c:	00070793          	mv	a5,a4
    2f10:	00179793          	slli	a5,a5,0x1
    2f14:	00e787b3          	add	a5,a5,a4
    2f18:	00178793          	addi	a5,a5,1
    2f1c:	ffffe737          	lui	a4,0xffffe
    2f20:	ff070713          	addi	a4,a4,-16 # ffffdff0 <__stack_top+0xffff5ff4>
    2f24:	00870733          	add	a4,a4,s0
    2f28:	00279793          	slli	a5,a5,0x2
    2f2c:	00f707b3          	add	a5,a4,a5
    2f30:	3847a783          	lw	a5,900(a5)
    2f34:	00f686b3          	add	a3,a3,a5
    2f38:	fe042703          	lw	a4,-32(s0)
    2f3c:	00070793          	mv	a5,a4
    2f40:	00179793          	slli	a5,a5,0x1
    2f44:	00e787b3          	add	a5,a5,a4
    2f48:	00278793          	addi	a5,a5,2
    2f4c:	ffffe737          	lui	a4,0xffffe
    2f50:	ff070713          	addi	a4,a4,-16 # ffffdff0 <__stack_top+0xffff5ff4>
    2f54:	00870733          	add	a4,a4,s0
    2f58:	00279793          	slli	a5,a5,0x2
    2f5c:	00f707b3          	add	a5,a4,a5
    2f60:	3847a783          	lw	a5,900(a5)
    2f64:	00f687b3          	add	a5,a3,a5
    2f68:	ecf42023          	sw	a5,-320(s0)
    2f6c:	ec042703          	lw	a4,-320(s0)
    2f70:	00300793          	li	a5,3
    2f74:	00f71a63          	bne	a4,a5,2f88 <main+0x2f44>
    2f78:	f8042783          	lw	a5,-128(s0)
    2f7c:	06478793          	addi	a5,a5,100
    2f80:	f8f42023          	sw	a5,-128(s0)
    2f84:	0540006f          	j	2fd8 <main+0x2f94>
    2f88:	ec042703          	lw	a4,-320(s0)
    2f8c:	00600793          	li	a5,6
    2f90:	00f71a63          	bne	a4,a5,2fa4 <main+0x2f60>
    2f94:	f8042783          	lw	a5,-128(s0)
    2f98:	f9c78793          	addi	a5,a5,-100
    2f9c:	f8f42023          	sw	a5,-128(s0)
    2fa0:	0380006f          	j	2fd8 <main+0x2f94>
    2fa4:	ec042703          	lw	a4,-320(s0)
    2fa8:	00200793          	li	a5,2
    2fac:	00f71a63          	bne	a4,a5,2fc0 <main+0x2f7c>
    2fb0:	f8042783          	lw	a5,-128(s0)
    2fb4:	00a78793          	addi	a5,a5,10
    2fb8:	f8f42023          	sw	a5,-128(s0)
    2fbc:	01c0006f          	j	2fd8 <main+0x2f94>
    2fc0:	ec042703          	lw	a4,-320(s0)
    2fc4:	00400793          	li	a5,4
    2fc8:	00f71863          	bne	a4,a5,2fd8 <main+0x2f94>
    2fcc:	f8042783          	lw	a5,-128(s0)
    2fd0:	ff678793          	addi	a5,a5,-10
    2fd4:	f8f42023          	sw	a5,-128(s0)
    2fd8:	fe042783          	lw	a5,-32(s0)
    2fdc:	00178793          	addi	a5,a5,1
    2fe0:	fef42023          	sw	a5,-32(s0)
    2fe4:	fe042703          	lw	a4,-32(s0)
    2fe8:	00200793          	li	a5,2
    2fec:	eee7dae3          	bge	a5,a4,2ee0 <main+0x2e9c>
    2ff0:	fe042023          	sw	zero,-32(s0)
    2ff4:	0e40006f          	j	30d8 <main+0x3094>
    2ff8:	ffffe7b7          	lui	a5,0xffffe
    2ffc:	ff078793          	addi	a5,a5,-16 # ffffdff0 <__stack_top+0xffff5ff4>
    3000:	00878733          	add	a4,a5,s0
    3004:	fe042783          	lw	a5,-32(s0)
    3008:	00279793          	slli	a5,a5,0x2
    300c:	00f707b3          	add	a5,a4,a5
    3010:	3847a703          	lw	a4,900(a5)
    3014:	fe042783          	lw	a5,-32(s0)
    3018:	00378793          	addi	a5,a5,3
    301c:	ffffe6b7          	lui	a3,0xffffe
    3020:	ff068693          	addi	a3,a3,-16 # ffffdff0 <__stack_top+0xffff5ff4>
    3024:	008686b3          	add	a3,a3,s0
    3028:	00279793          	slli	a5,a5,0x2
    302c:	00f687b3          	add	a5,a3,a5
    3030:	3847a783          	lw	a5,900(a5)
    3034:	00f70733          	add	a4,a4,a5
    3038:	fe042783          	lw	a5,-32(s0)
    303c:	00678793          	addi	a5,a5,6
    3040:	ffffe6b7          	lui	a3,0xffffe
    3044:	ff068693          	addi	a3,a3,-16 # ffffdff0 <__stack_top+0xffff5ff4>
    3048:	008686b3          	add	a3,a3,s0
    304c:	00279793          	slli	a5,a5,0x2
    3050:	00f687b3          	add	a5,a3,a5
    3054:	3847a783          	lw	a5,900(a5)
    3058:	00f707b3          	add	a5,a4,a5
    305c:	ecf42223          	sw	a5,-316(s0)
    3060:	ec442703          	lw	a4,-316(s0)
    3064:	00300793          	li	a5,3
    3068:	00f71a63          	bne	a4,a5,307c <main+0x3038>
    306c:	f8042783          	lw	a5,-128(s0)
    3070:	06478793          	addi	a5,a5,100
    3074:	f8f42023          	sw	a5,-128(s0)
    3078:	0540006f          	j	30cc <main+0x3088>
    307c:	ec442703          	lw	a4,-316(s0)
    3080:	00600793          	li	a5,6
    3084:	00f71a63          	bne	a4,a5,3098 <main+0x3054>
    3088:	f8042783          	lw	a5,-128(s0)
    308c:	f9c78793          	addi	a5,a5,-100
    3090:	f8f42023          	sw	a5,-128(s0)
    3094:	0380006f          	j	30cc <main+0x3088>
    3098:	ec442703          	lw	a4,-316(s0)
    309c:	00200793          	li	a5,2
    30a0:	00f71a63          	bne	a4,a5,30b4 <main+0x3070>
    30a4:	f8042783          	lw	a5,-128(s0)
    30a8:	00a78793          	addi	a5,a5,10
    30ac:	f8f42023          	sw	a5,-128(s0)
    30b0:	01c0006f          	j	30cc <main+0x3088>
    30b4:	ec442703          	lw	a4,-316(s0)
    30b8:	00400793          	li	a5,4
    30bc:	00f71863          	bne	a4,a5,30cc <main+0x3088>
    30c0:	f8042783          	lw	a5,-128(s0)
    30c4:	ff678793          	addi	a5,a5,-10
    30c8:	f8f42023          	sw	a5,-128(s0)
    30cc:	fe042783          	lw	a5,-32(s0)
    30d0:	00178793          	addi	a5,a5,1
    30d4:	fef42023          	sw	a5,-32(s0)
    30d8:	fe042703          	lw	a4,-32(s0)
    30dc:	00200793          	li	a5,2
    30e0:	f0e7dce3          	bge	a5,a4,2ff8 <main+0x2fb4>
    30e4:	ffffe7b7          	lui	a5,0xffffe
    30e8:	ff078793          	addi	a5,a5,-16 # ffffdff0 <__stack_top+0xffff5ff4>
    30ec:	008787b3          	add	a5,a5,s0
    30f0:	3847a703          	lw	a4,900(a5)
    30f4:	ffffe7b7          	lui	a5,0xffffe
    30f8:	ff078793          	addi	a5,a5,-16 # ffffdff0 <__stack_top+0xffff5ff4>
    30fc:	008787b3          	add	a5,a5,s0
    3100:	3947a783          	lw	a5,916(a5)
    3104:	00f70733          	add	a4,a4,a5
    3108:	ffffe7b7          	lui	a5,0xffffe
    310c:	ff078793          	addi	a5,a5,-16 # ffffdff0 <__stack_top+0xffff5ff4>
    3110:	008787b3          	add	a5,a5,s0
    3114:	3a47a783          	lw	a5,932(a5)
    3118:	00f707b3          	add	a5,a4,a5
    311c:	ecf42623          	sw	a5,-308(s0)
    3120:	ffffe7b7          	lui	a5,0xffffe
    3124:	ff078793          	addi	a5,a5,-16 # ffffdff0 <__stack_top+0xffff5ff4>
    3128:	008787b3          	add	a5,a5,s0
    312c:	38c7a703          	lw	a4,908(a5)
    3130:	ffffe7b7          	lui	a5,0xffffe
    3134:	ff078793          	addi	a5,a5,-16 # ffffdff0 <__stack_top+0xffff5ff4>
    3138:	008787b3          	add	a5,a5,s0
    313c:	3947a783          	lw	a5,916(a5)
    3140:	00f70733          	add	a4,a4,a5
    3144:	ffffe7b7          	lui	a5,0xffffe
    3148:	ff078793          	addi	a5,a5,-16 # ffffdff0 <__stack_top+0xffff5ff4>
    314c:	008787b3          	add	a5,a5,s0
    3150:	39c7a783          	lw	a5,924(a5)
    3154:	00f707b3          	add	a5,a4,a5
    3158:	ecf42423          	sw	a5,-312(s0)
    315c:	ecc42703          	lw	a4,-308(s0)
    3160:	00300793          	li	a5,3
    3164:	00f70863          	beq	a4,a5,3174 <main+0x3130>
    3168:	ec842703          	lw	a4,-312(s0)
    316c:	00300793          	li	a5,3
    3170:	00f71a63          	bne	a4,a5,3184 <main+0x3140>
    3174:	f8042783          	lw	a5,-128(s0)
    3178:	06478793          	addi	a5,a5,100
    317c:	f8f42023          	sw	a5,-128(s0)
    3180:	0780006f          	j	31f8 <main+0x31b4>
    3184:	ecc42703          	lw	a4,-308(s0)
    3188:	00600793          	li	a5,6
    318c:	00f70863          	beq	a4,a5,319c <main+0x3158>
    3190:	ec842703          	lw	a4,-312(s0)
    3194:	00600793          	li	a5,6
    3198:	00f71a63          	bne	a4,a5,31ac <main+0x3168>
    319c:	f8042783          	lw	a5,-128(s0)
    31a0:	f9c78793          	addi	a5,a5,-100
    31a4:	f8f42023          	sw	a5,-128(s0)
    31a8:	0500006f          	j	31f8 <main+0x31b4>
    31ac:	ecc42703          	lw	a4,-308(s0)
    31b0:	00200793          	li	a5,2
    31b4:	00f70863          	beq	a4,a5,31c4 <main+0x3180>
    31b8:	ec842703          	lw	a4,-312(s0)
    31bc:	00200793          	li	a5,2
    31c0:	00f71a63          	bne	a4,a5,31d4 <main+0x3190>
    31c4:	f8042783          	lw	a5,-128(s0)
    31c8:	00a78793          	addi	a5,a5,10
    31cc:	f8f42023          	sw	a5,-128(s0)
    31d0:	0280006f          	j	31f8 <main+0x31b4>
    31d4:	ecc42703          	lw	a4,-308(s0)
    31d8:	00400793          	li	a5,4
    31dc:	00f70863          	beq	a4,a5,31ec <main+0x31a8>
    31e0:	ec842703          	lw	a4,-312(s0)
    31e4:	00400793          	li	a5,4
    31e8:	00f71863          	bne	a4,a5,31f8 <main+0x31b4>
    31ec:	f8042783          	lw	a5,-128(s0)
    31f0:	ff678793          	addi	a5,a5,-10
    31f4:	f8f42023          	sw	a5,-128(s0)
    31f8:	ffffe7b7          	lui	a5,0xffffe
    31fc:	ff078793          	addi	a5,a5,-16 # ffffdff0 <__stack_top+0xffff5ff4>
    3200:	00878733          	add	a4,a5,s0
    3204:	fe442783          	lw	a5,-28(s0)
    3208:	00279793          	slli	a5,a5,0x2
    320c:	00f707b3          	add	a5,a4,a5
    3210:	f8042703          	lw	a4,-128(s0)
    3214:	3ae7a423          	sw	a4,936(a5)
    3218:	ffffe7b7          	lui	a5,0xffffe
    321c:	ff078793          	addi	a5,a5,-16 # ffffdff0 <__stack_top+0xffff5ff4>
    3220:	00878733          	add	a4,a5,s0
    3224:	fe442783          	lw	a5,-28(s0)
    3228:	00279793          	slli	a5,a5,0x2
    322c:	00f707b3          	add	a5,a4,a5
    3230:	3807a223          	sw	zero,900(a5)
    3234:	f8442783          	lw	a5,-124(s0)
    3238:	00178793          	addi	a5,a5,1
    323c:	f8f42223          	sw	a5,-124(s0)
    3240:	ffffe7b7          	lui	a5,0xffffe
    3244:	ff078793          	addi	a5,a5,-16 # ffffdff0 <__stack_top+0xffff5ff4>
    3248:	008787b3          	add	a5,a5,s0
    324c:	2607a783          	lw	a5,608(a5)
    3250:	00178713          	addi	a4,a5,1
    3254:	ffffe7b7          	lui	a5,0xffffe
    3258:	ff078793          	addi	a5,a5,-16 # ffffdff0 <__stack_top+0xffff5ff4>
    325c:	008787b3          	add	a5,a5,s0
    3260:	26e7a023          	sw	a4,608(a5)
    3264:	fe842703          	lw	a4,-24(s0)
    3268:	f8042783          	lw	a5,-128(s0)
    326c:	00f707b3          	add	a5,a4,a5
    3270:	11500593          	li	a1,277
    3274:	00078513          	mv	a0,a5
    3278:	3b0010ef          	jal	4628 <__modsi3>
    327c:	00050793          	mv	a5,a0
    3280:	fef42423          	sw	a5,-24(s0)
    3284:	fe442783          	lw	a5,-28(s0)
    3288:	00178793          	addi	a5,a5,1
    328c:	fef42223          	sw	a5,-28(s0)
    3290:	fe442703          	lw	a4,-28(s0)
    3294:	00800793          	li	a5,8
    3298:	bee7dee3          	bge	a5,a4,2e94 <main+0x2e50>
    329c:	fff00793          	li	a5,-1
    32a0:	f6f42e23          	sw	a5,-132(s0)
    32a4:	c1800793          	li	a5,-1000
    32a8:	f6f42c23          	sw	a5,-136(s0)
    32ac:	fe042223          	sw	zero,-28(s0)
    32b0:	07c0006f          	j	332c <main+0x32e8>
    32b4:	ffffe7b7          	lui	a5,0xffffe
    32b8:	ff078793          	addi	a5,a5,-16 # ffffdff0 <__stack_top+0xffff5ff4>
    32bc:	00878733          	add	a4,a5,s0
    32c0:	fe442783          	lw	a5,-28(s0)
    32c4:	00279793          	slli	a5,a5,0x2
    32c8:	00f707b3          	add	a5,a4,a5
    32cc:	3847a783          	lw	a5,900(a5)
    32d0:	04079863          	bnez	a5,3320 <main+0x32dc>
    32d4:	ffffe7b7          	lui	a5,0xffffe
    32d8:	ff078793          	addi	a5,a5,-16 # ffffdff0 <__stack_top+0xffff5ff4>
    32dc:	00878733          	add	a4,a5,s0
    32e0:	fe442783          	lw	a5,-28(s0)
    32e4:	00279793          	slli	a5,a5,0x2
    32e8:	00f707b3          	add	a5,a4,a5
    32ec:	3a87a783          	lw	a5,936(a5)
    32f0:	f7842703          	lw	a4,-136(s0)
    32f4:	02f75663          	bge	a4,a5,3320 <main+0x32dc>
    32f8:	ffffe7b7          	lui	a5,0xffffe
    32fc:	ff078793          	addi	a5,a5,-16 # ffffdff0 <__stack_top+0xffff5ff4>
    3300:	00878733          	add	a4,a5,s0
    3304:	fe442783          	lw	a5,-28(s0)
    3308:	00279793          	slli	a5,a5,0x2
    330c:	00f707b3          	add	a5,a4,a5
    3310:	3a87a783          	lw	a5,936(a5)
    3314:	f6f42c23          	sw	a5,-136(s0)
    3318:	fe442783          	lw	a5,-28(s0)
    331c:	f6f42e23          	sw	a5,-132(s0)
    3320:	fe442783          	lw	a5,-28(s0)
    3324:	00178793          	addi	a5,a5,1
    3328:	fef42223          	sw	a5,-28(s0)
    332c:	fe442703          	lw	a4,-28(s0)
    3330:	00800793          	li	a5,8
    3334:	f8e7d0e3          	bge	a5,a4,32b4 <main+0x3270>
    3338:	f7842783          	lw	a5,-136(s0)
    333c:	06400593          	li	a1,100
    3340:	00078513          	mv	a0,a5
    3344:	2e4010ef          	jal	4628 <__modsi3>
    3348:	00050793          	mv	a5,a0
    334c:	00078713          	mv	a4,a5
    3350:	f7c42783          	lw	a5,-132(s0)
    3354:	00f70733          	add	a4,a4,a5
    3358:	ffffe7b7          	lui	a5,0xffffe
    335c:	ff078793          	addi	a5,a5,-16 # ffffdff0 <__stack_top+0xffff5ff4>
    3360:	008787b3          	add	a5,a5,s0
    3364:	28e7a423          	sw	a4,648(a5)
    3368:	ffffe7b7          	lui	a5,0xffffe
    336c:	ff078793          	addi	a5,a5,-16 # ffffdff0 <__stack_top+0xffff5ff4>
    3370:	008787b3          	add	a5,a5,s0
    3374:	2887a783          	lw	a5,648(a5)
    3378:	fec42703          	lw	a4,-20(s0)
    337c:	00f707b3          	add	a5,a4,a5
    3380:	fef42623          	sw	a5,-20(s0)
    3384:	000077b7          	lui	a5,0x7
    3388:	01878793          	addi	a5,a5,24 # 7018 <results_array>
    338c:	f7c42703          	lw	a4,-132(s0)
    3390:	0ce7a423          	sw	a4,200(a5)
    3394:	000077b7          	lui	a5,0x7
    3398:	01878793          	addi	a5,a5,24 # 7018 <results_array>
    339c:	f7842703          	lw	a4,-136(s0)
    33a0:	0ce7a623          	sw	a4,204(a5)
    33a4:	000077b7          	lui	a5,0x7
    33a8:	01878793          	addi	a5,a5,24 # 7018 <results_array>
    33ac:	f8442703          	lw	a4,-124(s0)
    33b0:	0ce7a823          	sw	a4,208(a5)
    33b4:	ffffe7b7          	lui	a5,0xffffe
    33b8:	ff078793          	addi	a5,a5,-16 # ffffdff0 <__stack_top+0xffff5ff4>
    33bc:	008787b3          	add	a5,a5,s0
    33c0:	2607a703          	lw	a4,608(a5)
    33c4:	000077b7          	lui	a5,0x7
    33c8:	01878793          	addi	a5,a5,24 # 7018 <results_array>
    33cc:	0ce7aa23          	sw	a4,212(a5)
    33d0:	000077b7          	lui	a5,0x7
    33d4:	01878793          	addi	a5,a5,24 # 7018 <results_array>
    33d8:	fe842703          	lw	a4,-24(s0)
    33dc:	0ce7ac23          	sw	a4,216(a5)
    33e0:	fe042223          	sw	zero,-28(s0)
    33e4:	0300006f          	j	3414 <main+0x33d0>
    33e8:	ffffe7b7          	lui	a5,0xffffe
    33ec:	ff078793          	addi	a5,a5,-16 # ffffdff0 <__stack_top+0xffff5ff4>
    33f0:	00878733          	add	a4,a5,s0
    33f4:	fe442783          	lw	a5,-28(s0)
    33f8:	00279793          	slli	a5,a5,0x2
    33fc:	00f707b3          	add	a5,a4,a5
    3400:	fff00713          	li	a4,-1
    3404:	44e7a823          	sw	a4,1104(a5)
    3408:	fe442783          	lw	a5,-28(s0)
    340c:	00178793          	addi	a5,a5,1
    3410:	fef42223          	sw	a5,-28(s0)
    3414:	fe442703          	lw	a4,-28(s0)
    3418:	01f00793          	li	a5,31
    341c:	fce7d6e3          	bge	a5,a4,33e8 <main+0x33a4>
    3420:	fe042223          	sw	zero,-28(s0)
    3424:	02c0006f          	j	3450 <main+0x340c>
    3428:	ffffe7b7          	lui	a5,0xffffe
    342c:	ff078793          	addi	a5,a5,-16 # ffffdff0 <__stack_top+0xffff5ff4>
    3430:	00878733          	add	a4,a5,s0
    3434:	fe442783          	lw	a5,-28(s0)
    3438:	00279793          	slli	a5,a5,0x2
    343c:	00f707b3          	add	a5,a4,a5
    3440:	4207a823          	sw	zero,1072(a5)
    3444:	fe442783          	lw	a5,-28(s0)
    3448:	00178793          	addi	a5,a5,1
    344c:	fef42223          	sw	a5,-28(s0)
    3450:	fe442703          	lw	a4,-28(s0)
    3454:	00700793          	li	a5,7
    3458:	fce7d8e3          	bge	a5,a4,3428 <main+0x33e4>
    345c:	01f00793          	li	a5,31
    3460:	f0f42823          	sw	a5,-240(s0)
    3464:	3f100793          	li	a5,1009
    3468:	f0f42623          	sw	a5,-244(s0)
    346c:	fe042223          	sw	zero,-28(s0)
    3470:	05c0006f          	j	34cc <main+0x3488>
    3474:	fe442703          	lw	a4,-28(s0)
    3478:	00070793          	mv	a5,a4
    347c:	00179793          	slli	a5,a5,0x1
    3480:	00e787b3          	add	a5,a5,a4
    3484:	00479793          	slli	a5,a5,0x4
    3488:	40e787b3          	sub	a5,a5,a4
    348c:	04978793          	addi	a5,a5,73
    3490:	1f400593          	li	a1,500
    3494:	00078513          	mv	a0,a5
    3498:	190010ef          	jal	4628 <__modsi3>
    349c:	00050793          	mv	a5,a0
    34a0:	00078693          	mv	a3,a5
    34a4:	ffffe7b7          	lui	a5,0xffffe
    34a8:	ff078793          	addi	a5,a5,-16 # ffffdff0 <__stack_top+0xffff5ff4>
    34ac:	00878733          	add	a4,a5,s0
    34b0:	fe442783          	lw	a5,-28(s0)
    34b4:	00279793          	slli	a5,a5,0x2
    34b8:	00f707b3          	add	a5,a4,a5
    34bc:	10d7ac23          	sw	a3,280(a5)
    34c0:	fe442783          	lw	a5,-28(s0)
    34c4:	00178793          	addi	a5,a5,1
    34c8:	fef42223          	sw	a5,-28(s0)
    34cc:	fe442703          	lw	a4,-28(s0)
    34d0:	00e00793          	li	a5,14
    34d4:	fae7d0e3          	bge	a5,a4,3474 <main+0x3430>
    34d8:	fe042223          	sw	zero,-28(s0)
    34dc:	3200006f          	j	37fc <main+0x37b8>
    34e0:	f6042a23          	sw	zero,-140(s0)
    34e4:	ffffe7b7          	lui	a5,0xffffe
    34e8:	ff078793          	addi	a5,a5,-16 # ffffdff0 <__stack_top+0xffff5ff4>
    34ec:	00878733          	add	a4,a5,s0
    34f0:	fe442783          	lw	a5,-28(s0)
    34f4:	00279793          	slli	a5,a5,0x2
    34f8:	00f707b3          	add	a5,a4,a5
    34fc:	1187a783          	lw	a5,280(a5)
    3500:	f6f42823          	sw	a5,-144(s0)
    3504:	00100793          	li	a5,1
    3508:	f6f42623          	sw	a5,-148(s0)
    350c:	0a80006f          	j	35b4 <main+0x3570>
    3510:	f7042783          	lw	a5,-144(s0)
    3514:	00a00593          	li	a1,10
    3518:	00078513          	mv	a0,a5
    351c:	10c010ef          	jal	4628 <__modsi3>
    3520:	00050793          	mv	a5,a0
    3524:	f6c42583          	lw	a1,-148(s0)
    3528:	00078513          	mv	a0,a5
    352c:	054010ef          	jal	4580 <__mulsi3>
    3530:	00050793          	mv	a5,a0
    3534:	00078713          	mv	a4,a5
    3538:	f7442783          	lw	a5,-140(s0)
    353c:	00f707b3          	add	a5,a4,a5
    3540:	f0c42583          	lw	a1,-244(s0)
    3544:	00078513          	mv	a0,a5
    3548:	0e0010ef          	jal	4628 <__modsi3>
    354c:	00050793          	mv	a5,a0
    3550:	f6f42a23          	sw	a5,-140(s0)
    3554:	f1042583          	lw	a1,-240(s0)
    3558:	f6c42503          	lw	a0,-148(s0)
    355c:	024010ef          	jal	4580 <__mulsi3>
    3560:	00050793          	mv	a5,a0
    3564:	f0c42583          	lw	a1,-244(s0)
    3568:	00078513          	mv	a0,a5
    356c:	0bc010ef          	jal	4628 <__modsi3>
    3570:	00050793          	mv	a5,a0
    3574:	f6f42623          	sw	a5,-148(s0)
    3578:	f7042783          	lw	a5,-144(s0)
    357c:	00a00593          	li	a1,10
    3580:	00078513          	mv	a0,a5
    3584:	020010ef          	jal	45a4 <__divsi3>
    3588:	00050793          	mv	a5,a0
    358c:	f6f42823          	sw	a5,-144(s0)
    3590:	ffffe7b7          	lui	a5,0xffffe
    3594:	ff078793          	addi	a5,a5,-16 # ffffdff0 <__stack_top+0xffff5ff4>
    3598:	008787b3          	add	a5,a5,s0
    359c:	23c7a783          	lw	a5,572(a5)
    35a0:	00178713          	addi	a4,a5,1
    35a4:	ffffe7b7          	lui	a5,0xffffe
    35a8:	ff078793          	addi	a5,a5,-16 # ffffdff0 <__stack_top+0xffff5ff4>
    35ac:	008787b3          	add	a5,a5,s0
    35b0:	22e7ae23          	sw	a4,572(a5)
    35b4:	f7042783          	lw	a5,-144(s0)
    35b8:	f4f04ce3          	bgtz	a5,3510 <main+0x34cc>
    35bc:	ffffe7b7          	lui	a5,0xffffe
    35c0:	ff078793          	addi	a5,a5,-16 # ffffdff0 <__stack_top+0xffff5ff4>
    35c4:	00878733          	add	a4,a5,s0
    35c8:	fe442783          	lw	a5,-28(s0)
    35cc:	00279793          	slli	a5,a5,0x2
    35d0:	00f707b3          	add	a5,a4,a5
    35d4:	f7442703          	lw	a4,-140(s0)
    35d8:	3ce7a623          	sw	a4,972(a5)
    35dc:	f7442703          	lw	a4,-140(s0)
    35e0:	41f75793          	srai	a5,a4,0x1f
    35e4:	01b7d793          	srli	a5,a5,0x1b
    35e8:	00f70733          	add	a4,a4,a5
    35ec:	01f77713          	andi	a4,a4,31
    35f0:	40f707b3          	sub	a5,a4,a5
    35f4:	f6f42423          	sw	a5,-152(s0)
    35f8:	00100793          	li	a5,1
    35fc:	f6f42223          	sw	a5,-156(s0)
    3600:	0640006f          	j	3664 <main+0x3620>
    3604:	f6442583          	lw	a1,-156(s0)
    3608:	f6442503          	lw	a0,-156(s0)
    360c:	775000ef          	jal	4580 <__mulsi3>
    3610:	00050793          	mv	a5,a0
    3614:	00078713          	mv	a4,a5
    3618:	f6842783          	lw	a5,-152(s0)
    361c:	00f70733          	add	a4,a4,a5
    3620:	41f75793          	srai	a5,a4,0x1f
    3624:	01b7d793          	srli	a5,a5,0x1b
    3628:	00f70733          	add	a4,a4,a5
    362c:	01f77713          	andi	a4,a4,31
    3630:	40f707b3          	sub	a5,a4,a5
    3634:	f6f42423          	sw	a5,-152(s0)
    3638:	f6442783          	lw	a5,-156(s0)
    363c:	00178793          	addi	a5,a5,1
    3640:	f6f42223          	sw	a5,-156(s0)
    3644:	fe842703          	lw	a4,-24(s0)
    3648:	f6442783          	lw	a5,-156(s0)
    364c:	00f707b3          	add	a5,a4,a5
    3650:	10f00593          	li	a1,271
    3654:	00078513          	mv	a0,a5
    3658:	7d1000ef          	jal	4628 <__modsi3>
    365c:	00050793          	mv	a5,a0
    3660:	fef42423          	sw	a5,-24(s0)
    3664:	ffffe7b7          	lui	a5,0xffffe
    3668:	ff078793          	addi	a5,a5,-16 # ffffdff0 <__stack_top+0xffff5ff4>
    366c:	00878733          	add	a4,a5,s0
    3670:	f6842783          	lw	a5,-152(s0)
    3674:	00279793          	slli	a5,a5,0x2
    3678:	00f707b3          	add	a5,a4,a5
    367c:	4507a703          	lw	a4,1104(a5)
    3680:	fff00793          	li	a5,-1
    3684:	00f70863          	beq	a4,a5,3694 <main+0x3650>
    3688:	f6442703          	lw	a4,-156(s0)
    368c:	01f00793          	li	a5,31
    3690:	f6e7dae3          	bge	a5,a4,3604 <main+0x35c0>
    3694:	ffffe7b7          	lui	a5,0xffffe
    3698:	ff078793          	addi	a5,a5,-16 # ffffdff0 <__stack_top+0xffff5ff4>
    369c:	00878733          	add	a4,a5,s0
    36a0:	f6842783          	lw	a5,-152(s0)
    36a4:	00279793          	slli	a5,a5,0x2
    36a8:	00f707b3          	add	a5,a4,a5
    36ac:	4507a703          	lw	a4,1104(a5)
    36b0:	fff00793          	li	a5,-1
    36b4:	02f71e63          	bne	a4,a5,36f0 <main+0x36ac>
    36b8:	ffffe7b7          	lui	a5,0xffffe
    36bc:	ff078793          	addi	a5,a5,-16 # ffffdff0 <__stack_top+0xffff5ff4>
    36c0:	00878733          	add	a4,a5,s0
    36c4:	fe442783          	lw	a5,-28(s0)
    36c8:	00279793          	slli	a5,a5,0x2
    36cc:	00f707b3          	add	a5,a4,a5
    36d0:	1187a703          	lw	a4,280(a5)
    36d4:	ffffe7b7          	lui	a5,0xffffe
    36d8:	ff078793          	addi	a5,a5,-16 # ffffdff0 <__stack_top+0xffff5ff4>
    36dc:	008786b3          	add	a3,a5,s0
    36e0:	f6842783          	lw	a5,-152(s0)
    36e4:	00279793          	slli	a5,a5,0x2
    36e8:	00f687b3          	add	a5,a3,a5
    36ec:	44e7a823          	sw	a4,1104(a5)
    36f0:	f7442703          	lw	a4,-140(s0)
    36f4:	41f75793          	srai	a5,a4,0x1f
    36f8:	01a7d793          	srli	a5,a5,0x1a
    36fc:	00f70733          	add	a4,a4,a5
    3700:	03f77713          	andi	a4,a4,63
    3704:	40f707b3          	sub	a5,a4,a5
    3708:	ecf42a23          	sw	a5,-300(s0)
    370c:	f7442703          	lw	a4,-140(s0)
    3710:	00070793          	mv	a5,a4
    3714:	00479793          	slli	a5,a5,0x4
    3718:	00e787b3          	add	a5,a5,a4
    371c:	01778713          	addi	a4,a5,23
    3720:	41f75793          	srai	a5,a4,0x1f
    3724:	01a7d793          	srli	a5,a5,0x1a
    3728:	00f70733          	add	a4,a4,a5
    372c:	03f77713          	andi	a4,a4,63
    3730:	40f707b3          	sub	a5,a4,a5
    3734:	ecf42823          	sw	a5,-304(s0)
    3738:	ed442783          	lw	a5,-300(s0)
    373c:	41f7d713          	srai	a4,a5,0x1f
    3740:	00777713          	andi	a4,a4,7
    3744:	00f707b3          	add	a5,a4,a5
    3748:	4037d793          	srai	a5,a5,0x3
    374c:	00078713          	mv	a4,a5
    3750:	ffffe7b7          	lui	a5,0xffffe
    3754:	ff078793          	addi	a5,a5,-16 # ffffdff0 <__stack_top+0xffff5ff4>
    3758:	008786b3          	add	a3,a5,s0
    375c:	00271793          	slli	a5,a4,0x2
    3760:	00f687b3          	add	a5,a3,a5
    3764:	4307a683          	lw	a3,1072(a5)
    3768:	ed442783          	lw	a5,-300(s0)
    376c:	0077f793          	andi	a5,a5,7
    3770:	00100613          	li	a2,1
    3774:	00f617b3          	sll	a5,a2,a5
    3778:	00f6e6b3          	or	a3,a3,a5
    377c:	ffffe7b7          	lui	a5,0xffffe
    3780:	ff078793          	addi	a5,a5,-16 # ffffdff0 <__stack_top+0xffff5ff4>
    3784:	00878633          	add	a2,a5,s0
    3788:	00271793          	slli	a5,a4,0x2
    378c:	00f607b3          	add	a5,a2,a5
    3790:	42d7a823          	sw	a3,1072(a5)
    3794:	ed042783          	lw	a5,-304(s0)
    3798:	41f7d713          	srai	a4,a5,0x1f
    379c:	00777713          	andi	a4,a4,7
    37a0:	00f707b3          	add	a5,a4,a5
    37a4:	4037d793          	srai	a5,a5,0x3
    37a8:	00078713          	mv	a4,a5
    37ac:	ffffe7b7          	lui	a5,0xffffe
    37b0:	ff078793          	addi	a5,a5,-16 # ffffdff0 <__stack_top+0xffff5ff4>
    37b4:	008786b3          	add	a3,a5,s0
    37b8:	00271793          	slli	a5,a4,0x2
    37bc:	00f687b3          	add	a5,a3,a5
    37c0:	4307a683          	lw	a3,1072(a5)
    37c4:	ed042783          	lw	a5,-304(s0)
    37c8:	0077f793          	andi	a5,a5,7
    37cc:	00100613          	li	a2,1
    37d0:	00f617b3          	sll	a5,a2,a5
    37d4:	00f6e6b3          	or	a3,a3,a5
    37d8:	ffffe7b7          	lui	a5,0xffffe
    37dc:	ff078793          	addi	a5,a5,-16 # ffffdff0 <__stack_top+0xffff5ff4>
    37e0:	00878633          	add	a2,a5,s0
    37e4:	00271793          	slli	a5,a4,0x2
    37e8:	00f607b3          	add	a5,a2,a5
    37ec:	42d7a823          	sw	a3,1072(a5)
    37f0:	fe442783          	lw	a5,-28(s0)
    37f4:	00178793          	addi	a5,a5,1
    37f8:	fef42223          	sw	a5,-28(s0)
    37fc:	fe442703          	lw	a4,-28(s0)
    3800:	00e00793          	li	a5,14
    3804:	cce7dee3          	bge	a5,a4,34e0 <main+0x349c>
    3808:	00a00793          	li	a5,10
    380c:	f0f42423          	sw	a5,-248(s0)
    3810:	f6042023          	sw	zero,-160(s0)
    3814:	fe042223          	sw	zero,-28(s0)
    3818:	1fc0006f          	j	3a14 <main+0x39d0>
    381c:	fe442703          	lw	a4,-28(s0)
    3820:	00070793          	mv	a5,a4
    3824:	00279793          	slli	a5,a5,0x2
    3828:	00e787b3          	add	a5,a5,a4
    382c:	00279793          	slli	a5,a5,0x2
    3830:	00e787b3          	add	a5,a5,a4
    3834:	00279793          	slli	a5,a5,0x2
    3838:	40e787b3          	sub	a5,a5,a4
    383c:	06178793          	addi	a5,a5,97
    3840:	1f400593          	li	a1,500
    3844:	00078513          	mv	a0,a5
    3848:	5e1000ef          	jal	4628 <__modsi3>
    384c:	00050793          	mv	a5,a0
    3850:	eef42423          	sw	a5,-280(s0)
    3854:	f4042e23          	sw	zero,-164(s0)
    3858:	ee842783          	lw	a5,-280(s0)
    385c:	f4f42c23          	sw	a5,-168(s0)
    3860:	00100793          	li	a5,1
    3864:	f4f42a23          	sw	a5,-172(s0)
    3868:	0840006f          	j	38ec <main+0x38a8>
    386c:	f5842783          	lw	a5,-168(s0)
    3870:	00a00593          	li	a1,10
    3874:	00078513          	mv	a0,a5
    3878:	5b1000ef          	jal	4628 <__modsi3>
    387c:	00050793          	mv	a5,a0
    3880:	f5442583          	lw	a1,-172(s0)
    3884:	00078513          	mv	a0,a5
    3888:	4f9000ef          	jal	4580 <__mulsi3>
    388c:	00050793          	mv	a5,a0
    3890:	00078713          	mv	a4,a5
    3894:	f5c42783          	lw	a5,-164(s0)
    3898:	00f707b3          	add	a5,a4,a5
    389c:	f0c42583          	lw	a1,-244(s0)
    38a0:	00078513          	mv	a0,a5
    38a4:	585000ef          	jal	4628 <__modsi3>
    38a8:	00050793          	mv	a5,a0
    38ac:	f4f42e23          	sw	a5,-164(s0)
    38b0:	f1042583          	lw	a1,-240(s0)
    38b4:	f5442503          	lw	a0,-172(s0)
    38b8:	4c9000ef          	jal	4580 <__mulsi3>
    38bc:	00050793          	mv	a5,a0
    38c0:	f0c42583          	lw	a1,-244(s0)
    38c4:	00078513          	mv	a0,a5
    38c8:	561000ef          	jal	4628 <__modsi3>
    38cc:	00050793          	mv	a5,a0
    38d0:	f4f42a23          	sw	a5,-172(s0)
    38d4:	f5842783          	lw	a5,-168(s0)
    38d8:	00a00593          	li	a1,10
    38dc:	00078513          	mv	a0,a5
    38e0:	4c5000ef          	jal	45a4 <__divsi3>
    38e4:	00050793          	mv	a5,a0
    38e8:	f4f42c23          	sw	a5,-168(s0)
    38ec:	f5842783          	lw	a5,-168(s0)
    38f0:	f6f04ee3          	bgtz	a5,386c <main+0x3828>
    38f4:	f5c42703          	lw	a4,-164(s0)
    38f8:	41f75793          	srai	a5,a4,0x1f
    38fc:	01a7d793          	srli	a5,a5,0x1a
    3900:	00f70733          	add	a4,a4,a5
    3904:	03f77713          	andi	a4,a4,63
    3908:	40f707b3          	sub	a5,a4,a5
    390c:	eef42223          	sw	a5,-284(s0)
    3910:	f5c42703          	lw	a4,-164(s0)
    3914:	00070793          	mv	a5,a4
    3918:	00479793          	slli	a5,a5,0x4
    391c:	00e787b3          	add	a5,a5,a4
    3920:	01778713          	addi	a4,a5,23
    3924:	41f75793          	srai	a5,a4,0x1f
    3928:	01a7d793          	srli	a5,a5,0x1a
    392c:	00f70733          	add	a4,a4,a5
    3930:	03f77713          	andi	a4,a4,63
    3934:	40f707b3          	sub	a5,a4,a5
    3938:	eef42023          	sw	a5,-288(s0)
    393c:	ee442783          	lw	a5,-284(s0)
    3940:	41f7d713          	srai	a4,a5,0x1f
    3944:	00777713          	andi	a4,a4,7
    3948:	00f707b3          	add	a5,a4,a5
    394c:	4037d793          	srai	a5,a5,0x3
    3950:	00078693          	mv	a3,a5
    3954:	ffffe7b7          	lui	a5,0xffffe
    3958:	ff078793          	addi	a5,a5,-16 # ffffdff0 <__stack_top+0xffff5ff4>
    395c:	00878733          	add	a4,a5,s0
    3960:	00269793          	slli	a5,a3,0x2
    3964:	00f707b3          	add	a5,a4,a5
    3968:	4307a703          	lw	a4,1072(a5)
    396c:	ee442783          	lw	a5,-284(s0)
    3970:	0077f793          	andi	a5,a5,7
    3974:	00100693          	li	a3,1
    3978:	00f697b3          	sll	a5,a3,a5
    397c:	00f777b3          	and	a5,a4,a5
    3980:	ecf42e23          	sw	a5,-292(s0)
    3984:	ee042783          	lw	a5,-288(s0)
    3988:	41f7d713          	srai	a4,a5,0x1f
    398c:	00777713          	andi	a4,a4,7
    3990:	00f707b3          	add	a5,a4,a5
    3994:	4037d793          	srai	a5,a5,0x3
    3998:	00078693          	mv	a3,a5
    399c:	ffffe7b7          	lui	a5,0xffffe
    39a0:	ff078793          	addi	a5,a5,-16 # ffffdff0 <__stack_top+0xffff5ff4>
    39a4:	00878733          	add	a4,a5,s0
    39a8:	00269793          	slli	a5,a3,0x2
    39ac:	00f707b3          	add	a5,a4,a5
    39b0:	4307a703          	lw	a4,1072(a5)
    39b4:	ee042783          	lw	a5,-288(s0)
    39b8:	0077f793          	andi	a5,a5,7
    39bc:	00100693          	li	a3,1
    39c0:	00f697b3          	sll	a5,a3,a5
    39c4:	00f777b3          	and	a5,a4,a5
    39c8:	ecf42c23          	sw	a5,-296(s0)
    39cc:	edc42783          	lw	a5,-292(s0)
    39d0:	00078c63          	beqz	a5,39e8 <main+0x39a4>
    39d4:	ed842783          	lw	a5,-296(s0)
    39d8:	00078863          	beqz	a5,39e8 <main+0x39a4>
    39dc:	f6042783          	lw	a5,-160(s0)
    39e0:	00178793          	addi	a5,a5,1
    39e4:	f6f42023          	sw	a5,-160(s0)
    39e8:	fe842703          	lw	a4,-24(s0)
    39ec:	f6042783          	lw	a5,-160(s0)
    39f0:	00f707b3          	add	a5,a4,a5
    39f4:	10d00593          	li	a1,269
    39f8:	00078513          	mv	a0,a5
    39fc:	42d000ef          	jal	4628 <__modsi3>
    3a00:	00050793          	mv	a5,a0
    3a04:	fef42423          	sw	a5,-24(s0)
    3a08:	fe442783          	lw	a5,-28(s0)
    3a0c:	00178793          	addi	a5,a5,1
    3a10:	fef42223          	sw	a5,-28(s0)
    3a14:	fe442703          	lw	a4,-28(s0)
    3a18:	f0842783          	lw	a5,-248(s0)
    3a1c:	e0f740e3          	blt	a4,a5,381c <main+0x37d8>
    3a20:	ffffe7b7          	lui	a5,0xffffe
    3a24:	ff078793          	addi	a5,a5,-16 # ffffdff0 <__stack_top+0xffff5ff4>
    3a28:	008787b3          	add	a5,a5,s0
    3a2c:	f6042703          	lw	a4,-160(s0)
    3a30:	28e7a623          	sw	a4,652(a5)
    3a34:	ffffe7b7          	lui	a5,0xffffe
    3a38:	ff078793          	addi	a5,a5,-16 # ffffdff0 <__stack_top+0xffff5ff4>
    3a3c:	008787b3          	add	a5,a5,s0
    3a40:	28c7a703          	lw	a4,652(a5)
    3a44:	00070793          	mv	a5,a4
    3a48:	00379793          	slli	a5,a5,0x3
    3a4c:	40e787b3          	sub	a5,a5,a4
    3a50:	fec42703          	lw	a4,-20(s0)
    3a54:	00f707b3          	add	a5,a4,a5
    3a58:	fef42623          	sw	a5,-20(s0)
    3a5c:	000077b7          	lui	a5,0x7
    3a60:	01878793          	addi	a5,a5,24 # 7018 <results_array>
    3a64:	f6042703          	lw	a4,-160(s0)
    3a68:	0ce7ae23          	sw	a4,220(a5)
    3a6c:	ffffe7b7          	lui	a5,0xffffe
    3a70:	ff078793          	addi	a5,a5,-16 # ffffdff0 <__stack_top+0xffff5ff4>
    3a74:	008787b3          	add	a5,a5,s0
    3a78:	3e87a703          	lw	a4,1000(a5)
    3a7c:	000077b7          	lui	a5,0x7
    3a80:	01878793          	addi	a5,a5,24 # 7018 <results_array>
    3a84:	0ee7a023          	sw	a4,224(a5)
    3a88:	ffffe7b7          	lui	a5,0xffffe
    3a8c:	ff078793          	addi	a5,a5,-16 # ffffdff0 <__stack_top+0xffff5ff4>
    3a90:	008787b3          	add	a5,a5,s0
    3a94:	4787a703          	lw	a4,1144(a5)
    3a98:	000077b7          	lui	a5,0x7
    3a9c:	01878793          	addi	a5,a5,24 # 7018 <results_array>
    3aa0:	0ee7a223          	sw	a4,228(a5)
    3aa4:	ffffe7b7          	lui	a5,0xffffe
    3aa8:	ff078793          	addi	a5,a5,-16 # ffffdff0 <__stack_top+0xffff5ff4>
    3aac:	008787b3          	add	a5,a5,s0
    3ab0:	43c7a703          	lw	a4,1084(a5)
    3ab4:	000077b7          	lui	a5,0x7
    3ab8:	01878793          	addi	a5,a5,24 # 7018 <results_array>
    3abc:	0ee7a423          	sw	a4,232(a5)
    3ac0:	000077b7          	lui	a5,0x7
    3ac4:	01878793          	addi	a5,a5,24 # 7018 <results_array>
    3ac8:	fe842703          	lw	a4,-24(s0)
    3acc:	0ee7a623          	sw	a4,236(a5)
    3ad0:	42f00793          	li	a5,1071
    3ad4:	f4f42823          	sw	a5,-176(s0)
    3ad8:	1ce00793          	li	a5,462
    3adc:	f4f42623          	sw	a5,-180(s0)
    3ae0:	f4042423          	sw	zero,-184(s0)
    3ae4:	0a80006f          	j	3b8c <main+0x3b48>
    3ae8:	f5042783          	lw	a5,-176(s0)
    3aec:	f4c42583          	lw	a1,-180(s0)
    3af0:	00078513          	mv	a0,a5
    3af4:	335000ef          	jal	4628 <__modsi3>
    3af8:	00050793          	mv	a5,a0
    3afc:	00078693          	mv	a3,a5
    3b00:	ffffe7b7          	lui	a5,0xffffe
    3b04:	ff078793          	addi	a5,a5,-16 # ffffdff0 <__stack_top+0xffff5ff4>
    3b08:	00878733          	add	a4,a5,s0
    3b0c:	f4842783          	lw	a5,-184(s0)
    3b10:	00279793          	slli	a5,a5,0x2
    3b14:	00f707b3          	add	a5,a4,a5
    3b18:	60d7a023          	sw	a3,1536(a5)
    3b1c:	f4c42783          	lw	a5,-180(s0)
    3b20:	f0f42223          	sw	a5,-252(s0)
    3b24:	f5042783          	lw	a5,-176(s0)
    3b28:	f4c42583          	lw	a1,-180(s0)
    3b2c:	00078513          	mv	a0,a5
    3b30:	2f9000ef          	jal	4628 <__modsi3>
    3b34:	00050793          	mv	a5,a0
    3b38:	f4f42623          	sw	a5,-180(s0)
    3b3c:	f0442783          	lw	a5,-252(s0)
    3b40:	f4f42823          	sw	a5,-176(s0)
    3b44:	f4842783          	lw	a5,-184(s0)
    3b48:	00178793          	addi	a5,a5,1
    3b4c:	f4f42423          	sw	a5,-184(s0)
    3b50:	f4842783          	lw	a5,-184(s0)
    3b54:	fff78793          	addi	a5,a5,-1
    3b58:	ffffe737          	lui	a4,0xffffe
    3b5c:	ff070713          	addi	a4,a4,-16 # ffffdff0 <__stack_top+0xffff5ff4>
    3b60:	00870733          	add	a4,a4,s0
    3b64:	00279793          	slli	a5,a5,0x2
    3b68:	00f707b3          	add	a5,a4,a5
    3b6c:	6007a703          	lw	a4,1536(a5)
    3b70:	fe842783          	lw	a5,-24(s0)
    3b74:	00f707b3          	add	a5,a4,a5
    3b78:	10700593          	li	a1,263
    3b7c:	00078513          	mv	a0,a5
    3b80:	2a9000ef          	jal	4628 <__modsi3>
    3b84:	00050793          	mv	a5,a0
    3b88:	fef42423          	sw	a5,-24(s0)
    3b8c:	f4c42783          	lw	a5,-180(s0)
    3b90:	00078863          	beqz	a5,3ba0 <main+0x3b5c>
    3b94:	f4842703          	lw	a4,-184(s0)
    3b98:	00e00793          	li	a5,14
    3b9c:	f4e7d6e3          	bge	a5,a4,3ae8 <main+0x3aa4>
    3ba0:	f5042783          	lw	a5,-176(s0)
    3ba4:	f0f42023          	sw	a5,-256(s0)
    3ba8:	01100793          	li	a5,17
    3bac:	f4f42223          	sw	a5,-188(s0)
    3bb0:	00d00793          	li	a5,13
    3bb4:	f4f42023          	sw	a5,-192(s0)
    3bb8:	3f100793          	li	a5,1009
    3bbc:	eef42e23          	sw	a5,-260(s0)
    3bc0:	00100793          	li	a5,1
    3bc4:	f2f42e23          	sw	a5,-196(s0)
    3bc8:	fe042223          	sw	zero,-28(s0)
    3bcc:	02c0006f          	j	3bf8 <main+0x3bb4>
    3bd0:	ffffe7b7          	lui	a5,0xffffe
    3bd4:	ff078793          	addi	a5,a5,-16 # ffffdff0 <__stack_top+0xffff5ff4>
    3bd8:	00878733          	add	a4,a5,s0
    3bdc:	fe442783          	lw	a5,-28(s0)
    3be0:	00279793          	slli	a5,a5,0x2
    3be4:	00f707b3          	add	a5,a4,a5
    3be8:	5c07ac23          	sw	zero,1496(a5)
    3bec:	fe442783          	lw	a5,-28(s0)
    3bf0:	00178793          	addi	a5,a5,1
    3bf4:	fef42223          	sw	a5,-28(s0)
    3bf8:	fe442703          	lw	a4,-28(s0)
    3bfc:	00900793          	li	a5,9
    3c00:	fce7d8e3          	bge	a5,a4,3bd0 <main+0x3b8c>
    3c04:	f2042c23          	sw	zero,-200(s0)
    3c08:	0b00006f          	j	3cb8 <main+0x3c74>
    3c0c:	f4042783          	lw	a5,-192(s0)
    3c10:	0017f793          	andi	a5,a5,1
    3c14:	04078a63          	beqz	a5,3c68 <main+0x3c24>
    3c18:	f4442583          	lw	a1,-188(s0)
    3c1c:	f3c42503          	lw	a0,-196(s0)
    3c20:	161000ef          	jal	4580 <__mulsi3>
    3c24:	00050793          	mv	a5,a0
    3c28:	efc42583          	lw	a1,-260(s0)
    3c2c:	00078513          	mv	a0,a5
    3c30:	1f9000ef          	jal	4628 <__modsi3>
    3c34:	00050793          	mv	a5,a0
    3c38:	f2f42e23          	sw	a5,-196(s0)
    3c3c:	ffffe7b7          	lui	a5,0xffffe
    3c40:	ff078793          	addi	a5,a5,-16 # ffffdff0 <__stack_top+0xffff5ff4>
    3c44:	00878733          	add	a4,a5,s0
    3c48:	f3842783          	lw	a5,-200(s0)
    3c4c:	00279793          	slli	a5,a5,0x2
    3c50:	00f707b3          	add	a5,a4,a5
    3c54:	f3c42703          	lw	a4,-196(s0)
    3c58:	5ce7ac23          	sw	a4,1496(a5)
    3c5c:	f3842783          	lw	a5,-200(s0)
    3c60:	00178793          	addi	a5,a5,1
    3c64:	f2f42c23          	sw	a5,-200(s0)
    3c68:	f4442583          	lw	a1,-188(s0)
    3c6c:	f4442503          	lw	a0,-188(s0)
    3c70:	111000ef          	jal	4580 <__mulsi3>
    3c74:	00050793          	mv	a5,a0
    3c78:	efc42583          	lw	a1,-260(s0)
    3c7c:	00078513          	mv	a0,a5
    3c80:	1a9000ef          	jal	4628 <__modsi3>
    3c84:	00050793          	mv	a5,a0
    3c88:	f4f42223          	sw	a5,-188(s0)
    3c8c:	f4042783          	lw	a5,-192(s0)
    3c90:	4017d793          	srai	a5,a5,0x1
    3c94:	f4f42023          	sw	a5,-192(s0)
    3c98:	fe842703          	lw	a4,-24(s0)
    3c9c:	f3c42783          	lw	a5,-196(s0)
    3ca0:	00f707b3          	add	a5,a4,a5
    3ca4:	10100593          	li	a1,257
    3ca8:	00078513          	mv	a0,a5
    3cac:	17d000ef          	jal	4628 <__modsi3>
    3cb0:	00050793          	mv	a5,a0
    3cb4:	fef42423          	sw	a5,-24(s0)
    3cb8:	f4042783          	lw	a5,-192(s0)
    3cbc:	00f05863          	blez	a5,3ccc <main+0x3c88>
    3cc0:	f3842703          	lw	a4,-200(s0)
    3cc4:	00900793          	li	a5,9
    3cc8:	f4e7d2e3          	bge	a5,a4,3c0c <main+0x3bc8>
    3ccc:	000037b7          	lui	a5,0x3
    3cd0:	03978793          	addi	a5,a5,57 # 3039 <main+0x2ff5>
    3cd4:	f2f42a23          	sw	a5,-204(s0)
    3cd8:	001967b7          	lui	a5,0x196
    3cdc:	60d78793          	addi	a5,a5,1549 # 19660d <__stack_top+0x18e611>
    3ce0:	eef42c23          	sw	a5,-264(s0)
    3ce4:	3c6ef7b7          	lui	a5,0x3c6ef
    3ce8:	35f78793          	addi	a5,a5,863 # 3c6ef35f <__stack_top+0x3c6e7363>
    3cec:	eef42a23          	sw	a5,-268(s0)
    3cf0:	800007b7          	lui	a5,0x80000
    3cf4:	fff78793          	addi	a5,a5,-1 # 7fffffff <__stack_top+0x7fff8003>
    3cf8:	eef42823          	sw	a5,-272(s0)
    3cfc:	fe042223          	sw	zero,-28(s0)
    3d00:	0ac0006f          	j	3dac <main+0x3d68>
    3d04:	ef842583          	lw	a1,-264(s0)
    3d08:	f3442503          	lw	a0,-204(s0)
    3d0c:	075000ef          	jal	4580 <__mulsi3>
    3d10:	00050793          	mv	a5,a0
    3d14:	00078713          	mv	a4,a5
    3d18:	ef442783          	lw	a5,-268(s0)
    3d1c:	00f707b3          	add	a5,a4,a5
    3d20:	ef042583          	lw	a1,-272(s0)
    3d24:	00078513          	mv	a0,a5
    3d28:	101000ef          	jal	4628 <__modsi3>
    3d2c:	00050793          	mv	a5,a0
    3d30:	f2f42a23          	sw	a5,-204(s0)
    3d34:	f3442783          	lw	a5,-204(s0)
    3d38:	3e800593          	li	a1,1000
    3d3c:	00078513          	mv	a0,a5
    3d40:	0e9000ef          	jal	4628 <__modsi3>
    3d44:	00050793          	mv	a5,a0
    3d48:	00078693          	mv	a3,a5
    3d4c:	ffffe7b7          	lui	a5,0xffffe
    3d50:	ff078793          	addi	a5,a5,-16 # ffffdff0 <__stack_top+0xffff5ff4>
    3d54:	00878733          	add	a4,a5,s0
    3d58:	fe442783          	lw	a5,-28(s0)
    3d5c:	00279793          	slli	a5,a5,0x2
    3d60:	00f707b3          	add	a5,a4,a5
    3d64:	40d7a423          	sw	a3,1032(a5)
    3d68:	ffffe7b7          	lui	a5,0xffffe
    3d6c:	ff078793          	addi	a5,a5,-16 # ffffdff0 <__stack_top+0xffff5ff4>
    3d70:	00878733          	add	a4,a5,s0
    3d74:	fe442783          	lw	a5,-28(s0)
    3d78:	00279793          	slli	a5,a5,0x2
    3d7c:	00f707b3          	add	a5,a4,a5
    3d80:	4087a703          	lw	a4,1032(a5)
    3d84:	fe842783          	lw	a5,-24(s0)
    3d88:	00f707b3          	add	a5,a4,a5
    3d8c:	0fb00593          	li	a1,251
    3d90:	00078513          	mv	a0,a5
    3d94:	095000ef          	jal	4628 <__modsi3>
    3d98:	00050793          	mv	a5,a0
    3d9c:	fef42423          	sw	a5,-24(s0)
    3da0:	fe442783          	lw	a5,-28(s0)
    3da4:	00178793          	addi	a5,a5,1
    3da8:	fef42223          	sw	a5,-28(s0)
    3dac:	fe442703          	lw	a4,-28(s0)
    3db0:	00900793          	li	a5,9
    3db4:	f4e7d8e3          	bge	a5,a4,3d04 <main+0x3cc0>
    3db8:	f3c42783          	lw	a5,-196(s0)
    3dbc:	06400593          	li	a1,100
    3dc0:	00078513          	mv	a0,a5
    3dc4:	065000ef          	jal	4628 <__modsi3>
    3dc8:	00050793          	mv	a5,a0
    3dcc:	00078713          	mv	a4,a5
    3dd0:	f0042783          	lw	a5,-256(s0)
    3dd4:	00f70733          	add	a4,a4,a5
    3dd8:	ffffe7b7          	lui	a5,0xffffe
    3ddc:	ff078793          	addi	a5,a5,-16 # ffffdff0 <__stack_top+0xffff5ff4>
    3de0:	008787b3          	add	a5,a5,s0
    3de4:	28e7a823          	sw	a4,656(a5)
    3de8:	ffffe7b7          	lui	a5,0xffffe
    3dec:	ff078793          	addi	a5,a5,-16 # ffffdff0 <__stack_top+0xffff5ff4>
    3df0:	008787b3          	add	a5,a5,s0
    3df4:	2907a783          	lw	a5,656(a5)
    3df8:	fec42703          	lw	a4,-20(s0)
    3dfc:	00f707b3          	add	a5,a4,a5
    3e00:	fef42623          	sw	a5,-20(s0)
    3e04:	000077b7          	lui	a5,0x7
    3e08:	01878793          	addi	a5,a5,24 # 7018 <results_array>
    3e0c:	f0042703          	lw	a4,-256(s0)
    3e10:	0ee7a823          	sw	a4,240(a5)
    3e14:	000077b7          	lui	a5,0x7
    3e18:	01878793          	addi	a5,a5,24 # 7018 <results_array>
    3e1c:	f3c42703          	lw	a4,-196(s0)
    3e20:	0ee7aa23          	sw	a4,244(a5)
    3e24:	ffffe7b7          	lui	a5,0xffffe
    3e28:	ff078793          	addi	a5,a5,-16 # ffffdff0 <__stack_top+0xffff5ff4>
    3e2c:	008787b3          	add	a5,a5,s0
    3e30:	41c7a703          	lw	a4,1052(a5)
    3e34:	000077b7          	lui	a5,0x7
    3e38:	01878793          	addi	a5,a5,24 # 7018 <results_array>
    3e3c:	0ee7ac23          	sw	a4,248(a5)
    3e40:	000077b7          	lui	a5,0x7
    3e44:	01878793          	addi	a5,a5,24 # 7018 <results_array>
    3e48:	f4842703          	lw	a4,-184(s0)
    3e4c:	0ee7ae23          	sw	a4,252(a5)
    3e50:	000077b7          	lui	a5,0x7
    3e54:	01878793          	addi	a5,a5,24 # 7018 <results_array>
    3e58:	fe842703          	lw	a4,-24(s0)
    3e5c:	10e7a023          	sw	a4,256(a5)
    3e60:	f2042823          	sw	zero,-208(s0)
    3e64:	fe042223          	sw	zero,-28(s0)
    3e68:	1200006f          	j	3f88 <main+0x3f44>
    3e6c:	ffffe7b7          	lui	a5,0xffffe
    3e70:	ff078793          	addi	a5,a5,-16 # ffffdff0 <__stack_top+0xffff5ff4>
    3e74:	00878733          	add	a4,a5,s0
    3e78:	fe442783          	lw	a5,-28(s0)
    3e7c:	00279793          	slli	a5,a5,0x2
    3e80:	00f707b3          	add	a5,a4,a5
    3e84:	2647a703          	lw	a4,612(a5)
    3e88:	fe442783          	lw	a5,-28(s0)
    3e8c:	00178793          	addi	a5,a5,1
    3e90:	00078593          	mv	a1,a5
    3e94:	00070513          	mv	a0,a4
    3e98:	6e8000ef          	jal	4580 <__mulsi3>
    3e9c:	00050793          	mv	a5,a0
    3ea0:	eef42623          	sw	a5,-276(s0)
    3ea4:	f3042703          	lw	a4,-208(s0)
    3ea8:	eec42783          	lw	a5,-276(s0)
    3eac:	00f707b3          	add	a5,a4,a5
    3eb0:	f2f42823          	sw	a5,-208(s0)
    3eb4:	eec42783          	lw	a5,-276(s0)
    3eb8:	00300593          	li	a1,3
    3ebc:	00078513          	mv	a0,a5
    3ec0:	768000ef          	jal	4628 <__modsi3>
    3ec4:	00050793          	mv	a5,a0
    3ec8:	02079863          	bnez	a5,3ef8 <main+0x3eb4>
    3ecc:	f3042703          	lw	a4,-208(s0)
    3ed0:	00070793          	mv	a5,a4
    3ed4:	00379793          	slli	a5,a5,0x3
    3ed8:	40e78733          	sub	a4,a5,a4
    3edc:	41f75793          	srai	a5,a4,0x1f
    3ee0:	0157d793          	srli	a5,a5,0x15
    3ee4:	00f70733          	add	a4,a4,a5
    3ee8:	7ff77713          	andi	a4,a4,2047
    3eec:	40f707b3          	sub	a5,a4,a5
    3ef0:	f2f42823          	sw	a5,-208(s0)
    3ef4:	0680006f          	j	3f5c <main+0x3f18>
    3ef8:	eec42783          	lw	a5,-276(s0)
    3efc:	00300593          	li	a1,3
    3f00:	00078513          	mv	a0,a5
    3f04:	724000ef          	jal	4628 <__modsi3>
    3f08:	00050793          	mv	a5,a0
    3f0c:	00078713          	mv	a4,a5
    3f10:	00100793          	li	a5,1
    3f14:	02f71463          	bne	a4,a5,3f3c <main+0x3ef8>
    3f18:	f3042783          	lw	a5,-208(s0)
    3f1c:	09d78713          	addi	a4,a5,157
    3f20:	41f75793          	srai	a5,a4,0x1f
    3f24:	0157d793          	srli	a5,a5,0x15
    3f28:	00f70733          	add	a4,a4,a5
    3f2c:	7ff77713          	andi	a4,a4,2047
    3f30:	40f707b3          	sub	a5,a4,a5
    3f34:	f2f42823          	sw	a5,-208(s0)
    3f38:	0240006f          	j	3f5c <main+0x3f18>
    3f3c:	f3042783          	lw	a5,-208(s0)
    3f40:	0557c713          	xori	a4,a5,85
    3f44:	41f75793          	srai	a5,a4,0x1f
    3f48:	0157d793          	srli	a5,a5,0x15
    3f4c:	00f70733          	add	a4,a4,a5
    3f50:	7ff77713          	andi	a4,a4,2047
    3f54:	40f707b3          	sub	a5,a4,a5
    3f58:	f2f42823          	sw	a5,-208(s0)
    3f5c:	fe842703          	lw	a4,-24(s0)
    3f60:	f3042783          	lw	a5,-208(s0)
    3f64:	00f707b3          	add	a5,a4,a5
    3f68:	0f100593          	li	a1,241
    3f6c:	00078513          	mv	a0,a5
    3f70:	6b8000ef          	jal	4628 <__modsi3>
    3f74:	00050793          	mv	a5,a0
    3f78:	fef42423          	sw	a5,-24(s0)
    3f7c:	fe442783          	lw	a5,-28(s0)
    3f80:	00178793          	addi	a5,a5,1
    3f84:	fef42223          	sw	a5,-28(s0)
    3f88:	fe442703          	lw	a4,-28(s0)
    3f8c:	00b00793          	li	a5,11
    3f90:	ece7dee3          	bge	a5,a4,3e6c <main+0x3e28>
    3f94:	f2042623          	sw	zero,-212(s0)
    3f98:	fe042223          	sw	zero,-28(s0)
    3f9c:	09c0006f          	j	4038 <main+0x3ff4>
    3fa0:	ffffe7b7          	lui	a5,0xffffe
    3fa4:	ff078793          	addi	a5,a5,-16 # ffffdff0 <__stack_top+0xffff5ff4>
    3fa8:	00878733          	add	a4,a5,s0
    3fac:	fe442783          	lw	a5,-28(s0)
    3fb0:	00279793          	slli	a5,a5,0x2
    3fb4:	00f707b3          	add	a5,a4,a5
    3fb8:	23c7a783          	lw	a5,572(a5)
    3fbc:	f2c42703          	lw	a4,-212(s0)
    3fc0:	00f707b3          	add	a5,a4,a5
    3fc4:	f2f42623          	sw	a5,-212(s0)
    3fc8:	ffffe7b7          	lui	a5,0xffffe
    3fcc:	ff078793          	addi	a5,a5,-16 # ffffdff0 <__stack_top+0xffff5ff4>
    3fd0:	00878733          	add	a4,a5,s0
    3fd4:	fe442783          	lw	a5,-28(s0)
    3fd8:	00279793          	slli	a5,a5,0x2
    3fdc:	00f707b3          	add	a5,a4,a5
    3fe0:	23c7a683          	lw	a3,572(a5)
    3fe4:	fe442703          	lw	a4,-28(s0)
    3fe8:	41f75793          	srai	a5,a4,0x1f
    3fec:	01d7d793          	srli	a5,a5,0x1d
    3ff0:	00f70733          	add	a4,a4,a5
    3ff4:	00777713          	andi	a4,a4,7
    3ff8:	40f707b3          	sub	a5,a4,a5
    3ffc:	00078493          	mv	s1,a5
    4000:	06400593          	li	a1,100
    4004:	00068513          	mv	a0,a3
    4008:	620000ef          	jal	4628 <__modsi3>
    400c:	00050793          	mv	a5,a0
    4010:	00078693          	mv	a3,a5
    4014:	ffffe7b7          	lui	a5,0xffffe
    4018:	ff078793          	addi	a5,a5,-16 # ffffdff0 <__stack_top+0xffff5ff4>
    401c:	00878733          	add	a4,a5,s0
    4020:	00249793          	slli	a5,s1,0x2
    4024:	00f707b3          	add	a5,a4,a5
    4028:	20d7ae23          	sw	a3,540(a5)
    402c:	fe442783          	lw	a5,-28(s0)
    4030:	00178793          	addi	a5,a5,1
    4034:	fef42223          	sw	a5,-28(s0)
    4038:	fe442703          	lw	a4,-28(s0)
    403c:	00900793          	li	a5,9
    4040:	f6e7d0e3          	bge	a5,a4,3fa0 <main+0x3f5c>
    4044:	f2c42703          	lw	a4,-212(s0)
    4048:	3e800793          	li	a5,1000
    404c:	02e7de63          	bge	a5,a4,4088 <main+0x4044>
    4050:	fec42703          	lw	a4,-20(s0)
    4054:	f3042783          	lw	a5,-208(s0)
    4058:	00f70733          	add	a4,a4,a5
    405c:	fe842783          	lw	a5,-24(s0)
    4060:	00f70733          	add	a4,a4,a5
    4064:	41f75793          	srai	a5,a4,0x1f
    4068:	0147d793          	srli	a5,a5,0x14
    406c:	00f706b3          	add	a3,a4,a5
    4070:	00001737          	lui	a4,0x1
    4074:	fff70713          	addi	a4,a4,-1 # fff <main+0xfbb>
    4078:	00e6f733          	and	a4,a3,a4
    407c:	40f707b3          	sub	a5,a4,a5
    4080:	fef42623          	sw	a5,-20(s0)
    4084:	0ac0006f          	j	4130 <main+0x40ec>
    4088:	f2c42703          	lw	a4,-212(s0)
    408c:	1f400793          	li	a5,500
    4090:	04e7d863          	bge	a5,a4,40e0 <main+0x409c>
    4094:	fec42783          	lw	a5,-20(s0)
    4098:	00179713          	slli	a4,a5,0x1
    409c:	f3042783          	lw	a5,-208(s0)
    40a0:	00f704b3          	add	s1,a4,a5
    40a4:	fe842783          	lw	a5,-24(s0)
    40a8:	0c800593          	li	a1,200
    40ac:	00078513          	mv	a0,a5
    40b0:	578000ef          	jal	4628 <__modsi3>
    40b4:	00050793          	mv	a5,a0
    40b8:	40f48733          	sub	a4,s1,a5
    40bc:	41f75793          	srai	a5,a4,0x1f
    40c0:	0147d793          	srli	a5,a5,0x14
    40c4:	00f706b3          	add	a3,a4,a5
    40c8:	00001737          	lui	a4,0x1
    40cc:	fff70713          	addi	a4,a4,-1 # fff <main+0xfbb>
    40d0:	00e6f733          	and	a4,a3,a4
    40d4:	40f707b3          	sub	a5,a4,a5
    40d8:	fef42623          	sw	a5,-20(s0)
    40dc:	0540006f          	j	4130 <main+0x40ec>
    40e0:	f3042703          	lw	a4,-208(s0)
    40e4:	00070793          	mv	a5,a4
    40e8:	00179793          	slli	a5,a5,0x1
    40ec:	00e78733          	add	a4,a5,a4
    40f0:	fec42783          	lw	a5,-20(s0)
    40f4:	00f704b3          	add	s1,a4,a5
    40f8:	fe842783          	lw	a5,-24(s0)
    40fc:	12c00593          	li	a1,300
    4100:	00078513          	mv	a0,a5
    4104:	524000ef          	jal	4628 <__modsi3>
    4108:	00050793          	mv	a5,a0
    410c:	00f48733          	add	a4,s1,a5
    4110:	41f75793          	srai	a5,a4,0x1f
    4114:	0147d793          	srli	a5,a5,0x14
    4118:	00f706b3          	add	a3,a4,a5
    411c:	00001737          	lui	a4,0x1
    4120:	fff70713          	addi	a4,a4,-1 # fff <main+0xfbb>
    4124:	00e6f733          	and	a4,a3,a4
    4128:	40f707b3          	sub	a5,a4,a5
    412c:	fef42623          	sw	a5,-20(s0)
    4130:	fec42783          	lw	a5,-20(s0)
    4134:	0207d463          	bgez	a5,415c <main+0x4118>
    4138:	fe842783          	lw	a5,-24(s0)
    413c:	06400593          	li	a1,100
    4140:	00078513          	mv	a0,a5
    4144:	4e4000ef          	jal	4628 <__modsi3>
    4148:	00050793          	mv	a5,a0
    414c:	00078713          	mv	a4,a5
    4150:	fec42783          	lw	a5,-20(s0)
    4154:	40f707b3          	sub	a5,a4,a5
    4158:	fef42623          	sw	a5,-20(s0)
    415c:	fec42703          	lw	a4,-20(s0)
    4160:	41f75793          	srai	a5,a4,0x1f
    4164:	0147d793          	srli	a5,a5,0x14
    4168:	00f706b3          	add	a3,a4,a5
    416c:	00001737          	lui	a4,0x1
    4170:	fff70713          	addi	a4,a4,-1 # fff <main+0xfbb>
    4174:	00e6f733          	and	a4,a3,a4
    4178:	40f707b3          	sub	a5,a4,a5
    417c:	fef42623          	sw	a5,-20(s0)
    4180:	f3042783          	lw	a5,-208(s0)
    4184:	3e800593          	li	a1,1000
    4188:	00078513          	mv	a0,a5
    418c:	49c000ef          	jal	4628 <__modsi3>
    4190:	00050793          	mv	a5,a0
    4194:	00078713          	mv	a4,a5
    4198:	ffffe7b7          	lui	a5,0xffffe
    419c:	ff078793          	addi	a5,a5,-16 # ffffdff0 <__stack_top+0xffff5ff4>
    41a0:	008787b3          	add	a5,a5,s0
    41a4:	28e7aa23          	sw	a4,660(a5)
    41a8:	f2c42783          	lw	a5,-212(s0)
    41ac:	3e800593          	li	a1,1000
    41b0:	00078513          	mv	a0,a5
    41b4:	474000ef          	jal	4628 <__modsi3>
    41b8:	00050793          	mv	a5,a0
    41bc:	00078713          	mv	a4,a5
    41c0:	ffffe7b7          	lui	a5,0xffffe
    41c4:	ff078793          	addi	a5,a5,-16 # ffffdff0 <__stack_top+0xffff5ff4>
    41c8:	008787b3          	add	a5,a5,s0
    41cc:	28e7ac23          	sw	a4,664(a5)
    41d0:	ffffe7b7          	lui	a5,0xffffe
    41d4:	ff078793          	addi	a5,a5,-16 # ffffdff0 <__stack_top+0xffff5ff4>
    41d8:	008787b3          	add	a5,a5,s0
    41dc:	fec42703          	lw	a4,-20(s0)
    41e0:	28e7ae23          	sw	a4,668(a5)
    41e4:	000077b7          	lui	a5,0x7
    41e8:	01878793          	addi	a5,a5,24 # 7018 <results_array>
    41ec:	f3042703          	lw	a4,-208(s0)
    41f0:	10e7a223          	sw	a4,260(a5)
    41f4:	000077b7          	lui	a5,0x7
    41f8:	01878793          	addi	a5,a5,24 # 7018 <results_array>
    41fc:	f2c42703          	lw	a4,-212(s0)
    4200:	10e7a423          	sw	a4,264(a5)
    4204:	ffffe7b7          	lui	a5,0xffffe
    4208:	ff078793          	addi	a5,a5,-16 # ffffdff0 <__stack_top+0xffff5ff4>
    420c:	008787b3          	add	a5,a5,s0
    4210:	21c7a703          	lw	a4,540(a5)
    4214:	000077b7          	lui	a5,0x7
    4218:	01878793          	addi	a5,a5,24 # 7018 <results_array>
    421c:	10e7a623          	sw	a4,268(a5)
    4220:	ffffe7b7          	lui	a5,0xffffe
    4224:	ff078793          	addi	a5,a5,-16 # ffffdff0 <__stack_top+0xffff5ff4>
    4228:	008787b3          	add	a5,a5,s0
    422c:	22c7a703          	lw	a4,556(a5)
    4230:	000077b7          	lui	a5,0x7
    4234:	01878793          	addi	a5,a5,24 # 7018 <results_array>
    4238:	10e7a823          	sw	a4,272(a5)
    423c:	000077b7          	lui	a5,0x7
    4240:	01878793          	addi	a5,a5,24 # 7018 <results_array>
    4244:	fe842703          	lw	a4,-24(s0)
    4248:	10e7aa23          	sw	a4,276(a5)
    424c:	fffff7b7          	lui	a5,0xfffff
    4250:	ff078793          	addi	a5,a5,-16 # ffffeff0 <__stack_top+0xffff6ff4>
    4254:	008787b3          	add	a5,a5,s0
    4258:	fec42703          	lw	a4,-20(s0)
    425c:	b6e7a223          	sw	a4,-1180(a5)
    4260:	ffffe7b7          	lui	a5,0xffffe
    4264:	ff078793          	addi	a5,a5,-16 # ffffdff0 <__stack_top+0xffff5ff4>
    4268:	008787b3          	add	a5,a5,s0
    426c:	fe842703          	lw	a4,-24(s0)
    4270:	44e7a823          	sw	a4,1104(a5)
    4274:	f3042783          	lw	a5,-208(s0)
    4278:	c4f42423          	sw	a5,-952(s0)
    427c:	fffff7b7          	lui	a5,0xfffff
    4280:	ff078793          	addi	a5,a5,-16 # ffffeff0 <__stack_top+0xffff6ff4>
    4284:	008787b3          	add	a5,a5,s0
    4288:	f2c42703          	lw	a4,-212(s0)
    428c:	0ee7ae23          	sw	a4,252(a5)
    4290:	000077b7          	lui	a5,0x7
    4294:	01878793          	addi	a5,a5,24 # 7018 <results_array>
    4298:	fec42703          	lw	a4,-20(s0)
    429c:	10e7ac23          	sw	a4,280(a5)
    42a0:	000077b7          	lui	a5,0x7
    42a4:	01878793          	addi	a5,a5,24 # 7018 <results_array>
    42a8:	fe842703          	lw	a4,-24(s0)
    42ac:	10e7ae23          	sw	a4,284(a5)
    42b0:	000077b7          	lui	a5,0x7
    42b4:	01878793          	addi	a5,a5,24 # 7018 <results_array>
    42b8:	f3042703          	lw	a4,-208(s0)
    42bc:	12e7a023          	sw	a4,288(a5)
    42c0:	000077b7          	lui	a5,0x7
    42c4:	01878793          	addi	a5,a5,24 # 7018 <results_array>
    42c8:	f2c42703          	lw	a4,-212(s0)
    42cc:	12e7a223          	sw	a4,292(a5)
    42d0:	ffffe7b7          	lui	a5,0xffffe
    42d4:	ff078793          	addi	a5,a5,-16 # ffffdff0 <__stack_top+0xffff5ff4>
    42d8:	008787b3          	add	a5,a5,s0
    42dc:	2647a703          	lw	a4,612(a5)
    42e0:	000077b7          	lui	a5,0x7
    42e4:	01878793          	addi	a5,a5,24 # 7018 <results_array>
    42e8:	12e7a423          	sw	a4,296(a5)
    42ec:	ffffe7b7          	lui	a5,0xffffe
    42f0:	ff078793          	addi	a5,a5,-16 # ffffdff0 <__stack_top+0xffff5ff4>
    42f4:	008787b3          	add	a5,a5,s0
    42f8:	2787a703          	lw	a4,632(a5)
    42fc:	000077b7          	lui	a5,0x7
    4300:	01878793          	addi	a5,a5,24 # 7018 <results_array>
    4304:	12e7a623          	sw	a4,300(a5)
    4308:	ffffe7b7          	lui	a5,0xffffe
    430c:	ff078793          	addi	a5,a5,-16 # ffffdff0 <__stack_top+0xffff5ff4>
    4310:	008787b3          	add	a5,a5,s0
    4314:	28c7a703          	lw	a4,652(a5)
    4318:	000077b7          	lui	a5,0x7
    431c:	01878793          	addi	a5,a5,24 # 7018 <results_array>
    4320:	12e7a823          	sw	a4,304(a5)
    4324:	ffffe7b7          	lui	a5,0xffffe
    4328:	ff078793          	addi	a5,a5,-16 # ffffdff0 <__stack_top+0xffff5ff4>
    432c:	008787b3          	add	a5,a5,s0
    4330:	2447a703          	lw	a4,580(a5)
    4334:	000077b7          	lui	a5,0x7
    4338:	01878793          	addi	a5,a5,24 # 7018 <results_array>
    433c:	12e7aa23          	sw	a4,308(a5)
    4340:	ffffe7b7          	lui	a5,0xffffe
    4344:	ff078793          	addi	a5,a5,-16 # ffffdff0 <__stack_top+0xffff5ff4>
    4348:	008787b3          	add	a5,a5,s0
    434c:	2587a703          	lw	a4,600(a5)
    4350:	000077b7          	lui	a5,0x7
    4354:	01878793          	addi	a5,a5,24 # 7018 <results_array>
    4358:	12e7ac23          	sw	a4,312(a5)
    435c:	ffffe7b7          	lui	a5,0xffffe
    4360:	ff078793          	addi	a5,a5,-16 # ffffdff0 <__stack_top+0xffff5ff4>
    4364:	008787b3          	add	a5,a5,s0
    4368:	2287a703          	lw	a4,552(a5)
    436c:	000077b7          	lui	a5,0x7
    4370:	01878793          	addi	a5,a5,24 # 7018 <results_array>
    4374:	12e7ae23          	sw	a4,316(a5)
    4378:	000077b7          	lui	a5,0x7
    437c:	01878793          	addi	a5,a5,24 # 7018 <results_array>
    4380:	00013737          	lui	a4,0x13
    4384:	fd170713          	addi	a4,a4,-47 # 12fd1 <__stack_top+0xafd5>
    4388:	14e7a023          	sw	a4,320(a5)
    438c:	000077b7          	lui	a5,0x7
    4390:	01878793          	addi	a5,a5,24 # 7018 <results_array>
    4394:	00016737          	lui	a4,0x16
    4398:	b3870713          	addi	a4,a4,-1224 # 15b38 <__stack_top+0xdb3c>
    439c:	14e7a223          	sw	a4,324(a5)
    43a0:	000077b7          	lui	a5,0x7
    43a4:	01878793          	addi	a5,a5,24 # 7018 <results_array>
    43a8:	00018737          	lui	a4,0x18
    43ac:	69f70713          	addi	a4,a4,1695 # 1869f <__stack_top+0x106a3>
    43b0:	14e7a423          	sw	a4,328(a5)
    43b4:	fec42783          	lw	a5,-20(s0)
    43b8:	3e800593          	li	a1,1000
    43bc:	00078513          	mv	a0,a5
    43c0:	268000ef          	jal	4628 <__modsi3>
    43c4:	00050793          	mv	a5,a0
    43c8:	00078713          	mv	a4,a5
    43cc:	000077b7          	lui	a5,0x7
    43d0:	01878793          	addi	a5,a5,24 # 7018 <results_array>
    43d4:	14e7a623          	sw	a4,332(a5)
    43d8:	fe842783          	lw	a5,-24(s0)
    43dc:	3e800593          	li	a1,1000
    43e0:	00078513          	mv	a0,a5
    43e4:	244000ef          	jal	4628 <__modsi3>
    43e8:	00050793          	mv	a5,a0
    43ec:	00078713          	mv	a4,a5
    43f0:	000077b7          	lui	a5,0x7
    43f4:	01878793          	addi	a5,a5,24 # 7018 <results_array>
    43f8:	14e7a823          	sw	a4,336(a5)
    43fc:	ffffe7b7          	lui	a5,0xffffe
    4400:	ff078793          	addi	a5,a5,-16 # ffffdff0 <__stack_top+0xffff5ff4>
    4404:	008787b3          	add	a5,a5,s0
    4408:	29c7a703          	lw	a4,668(a5)
    440c:	000077b7          	lui	a5,0x7
    4410:	01878793          	addi	a5,a5,24 # 7018 <results_array>
    4414:	14e7aa23          	sw	a4,340(a5)
    4418:	000077b7          	lui	a5,0x7
    441c:	01878793          	addi	a5,a5,24 # 7018 <results_array>
    4420:	00003737          	lui	a4,0x3
    4424:	b6770713          	addi	a4,a4,-1177 # 2b67 <main+0x2b23>
    4428:	14e7ac23          	sw	a4,344(a5)
    442c:	000077b7          	lui	a5,0x7
    4430:	01878793          	addi	a5,a5,24 # 7018 <results_array>
    4434:	00005737          	lui	a4,0x5
    4438:	6ce70713          	addi	a4,a4,1742 # 56ce <__DATA_BEGIN__+0x6ce>
    443c:	14e7ae23          	sw	a4,348(a5)
    4440:	000077b7          	lui	a5,0x7
    4444:	01878793          	addi	a5,a5,24 # 7018 <results_array>
    4448:	00008737          	lui	a4,0x8
    444c:	23570713          	addi	a4,a4,565 # 8235 <__stack_top+0x239>
    4450:	16e7a023          	sw	a4,352(a5)
    4454:	000077b7          	lui	a5,0x7
    4458:	01878793          	addi	a5,a5,24 # 7018 <results_array>
    445c:	0000b737          	lui	a4,0xb
    4460:	d9c70713          	addi	a4,a4,-612 # ad9c <__stack_top+0x2da0>
    4464:	16e7a223          	sw	a4,356(a5)
    4468:	05a00793          	li	a5,90
    446c:	fef42223          	sw	a5,-28(s0)
    4470:	08c0006f          	j	44fc <main+0x44b8>
    4474:	fe442783          	lw	a5,-28(s0)
    4478:	fff78793          	addi	a5,a5,-1
    447c:	00007737          	lui	a4,0x7
    4480:	01870713          	addi	a4,a4,24 # 7018 <results_array>
    4484:	00279793          	slli	a5,a5,0x2
    4488:	00f707b3          	add	a5,a4,a5
    448c:	0007a683          	lw	a3,0(a5)
    4490:	fe442783          	lw	a5,-28(s0)
    4494:	ffe78793          	addi	a5,a5,-2
    4498:	00007737          	lui	a4,0x7
    449c:	01870713          	addi	a4,a4,24 # 7018 <results_array>
    44a0:	00279793          	slli	a5,a5,0x2
    44a4:	00f707b3          	add	a5,a4,a5
    44a8:	0007a783          	lw	a5,0(a5)
    44ac:	00078593          	mv	a1,a5
    44b0:	00068513          	mv	a0,a3
    44b4:	0cc000ef          	jal	4580 <__mulsi3>
    44b8:	00050793          	mv	a5,a0
    44bc:	00078713          	mv	a4,a5
    44c0:	000027b7          	lui	a5,0x2
    44c4:	71078593          	addi	a1,a5,1808 # 2710 <main+0x26cc>
    44c8:	00070513          	mv	a0,a4
    44cc:	15c000ef          	jal	4628 <__modsi3>
    44d0:	00050793          	mv	a5,a0
    44d4:	00078693          	mv	a3,a5
    44d8:	000077b7          	lui	a5,0x7
    44dc:	01878713          	addi	a4,a5,24 # 7018 <results_array>
    44e0:	fe442783          	lw	a5,-28(s0)
    44e4:	00279793          	slli	a5,a5,0x2
    44e8:	00f707b3          	add	a5,a4,a5
    44ec:	00d7a023          	sw	a3,0(a5)
    44f0:	fe442783          	lw	a5,-28(s0)
    44f4:	00178793          	addi	a5,a5,1
    44f8:	fef42223          	sw	a5,-28(s0)
    44fc:	fe442703          	lw	a4,-28(s0)
    4500:	06200793          	li	a5,98
    4504:	f6e7d8e3          	bge	a5,a4,4474 <main+0x4430>
    4508:	000077b7          	lui	a5,0x7
    450c:	01878793          	addi	a5,a5,24 # 7018 <results_array>
    4510:	0000e737          	lui	a4,0xe
    4514:	90370713          	addi	a4,a4,-1789 # d903 <__stack_top+0x5907>
    4518:	18e7a623          	sw	a4,396(a5)
    451c:	000077b7          	lui	a5,0x7
    4520:	01878793          	addi	a5,a5,24 # 7018 <results_array>
    4524:	1887a783          	lw	a5,392(a5)
    4528:	00500593          	li	a1,5
    452c:	00078513          	mv	a0,a5
    4530:	0f8000ef          	jal	4628 <__modsi3>
    4534:	00050793          	mv	a5,a0
    4538:	02079063          	bnez	a5,4558 <main+0x4514>
    453c:	000077b7          	lui	a5,0x7
    4540:	01878793          	addi	a5,a5,24 # 7018 <results_array>
    4544:	1887a783          	lw	a5,392(a5)
    4548:	00378713          	addi	a4,a5,3
    454c:	000077b7          	lui	a5,0x7
    4550:	01878793          	addi	a5,a5,24 # 7018 <results_array>
    4554:	18e7a423          	sw	a4,392(a5)
    4558:	00000793          	li	a5,0
    455c:	00078513          	mv	a0,a5
    4560:	000012b7          	lui	t0,0x1
    4564:	71028293          	addi	t0,t0,1808 # 1710 <main+0x16cc>
    4568:	00510133          	add	sp,sp,t0
    456c:	7ec12083          	lw	ra,2028(sp)
    4570:	7e812403          	lw	s0,2024(sp)
    4574:	7e412483          	lw	s1,2020(sp)
    4578:	7f010113          	addi	sp,sp,2032
    457c:	00008067          	ret

00004580 <__mulsi3>:
    4580:	00050613          	mv	a2,a0
    4584:	00000513          	li	a0,0
    4588:	0015f693          	andi	a3,a1,1
    458c:	00068463          	beqz	a3,4594 <__mulsi3+0x14>
    4590:	00c50533          	add	a0,a0,a2
    4594:	0015d593          	srli	a1,a1,0x1
    4598:	00161613          	slli	a2,a2,0x1
    459c:	fe0596e3          	bnez	a1,4588 <__mulsi3+0x8>
    45a0:	00008067          	ret

000045a4 <__divsi3>:
    45a4:	06054063          	bltz	a0,4604 <__umodsi3+0x10>
    45a8:	0605c663          	bltz	a1,4614 <__umodsi3+0x20>

000045ac <__hidden___udivsi3>:
    45ac:	00058613          	mv	a2,a1
    45b0:	00050593          	mv	a1,a0
    45b4:	fff00513          	li	a0,-1
    45b8:	02060c63          	beqz	a2,45f0 <__hidden___udivsi3+0x44>
    45bc:	00100693          	li	a3,1
    45c0:	00b67a63          	bgeu	a2,a1,45d4 <__hidden___udivsi3+0x28>
    45c4:	00c05863          	blez	a2,45d4 <__hidden___udivsi3+0x28>
    45c8:	00161613          	slli	a2,a2,0x1
    45cc:	00169693          	slli	a3,a3,0x1
    45d0:	feb66ae3          	bltu	a2,a1,45c4 <__hidden___udivsi3+0x18>
    45d4:	00000513          	li	a0,0
    45d8:	00c5e663          	bltu	a1,a2,45e4 <__hidden___udivsi3+0x38>
    45dc:	40c585b3          	sub	a1,a1,a2
    45e0:	00d56533          	or	a0,a0,a3
    45e4:	0016d693          	srli	a3,a3,0x1
    45e8:	00165613          	srli	a2,a2,0x1
    45ec:	fe0696e3          	bnez	a3,45d8 <__hidden___udivsi3+0x2c>
    45f0:	00008067          	ret

000045f4 <__umodsi3>:
    45f4:	00008293          	mv	t0,ra
    45f8:	fb5ff0ef          	jal	45ac <__hidden___udivsi3>
    45fc:	00058513          	mv	a0,a1
    4600:	00028067          	jr	t0
    4604:	40a00533          	neg	a0,a0
    4608:	00b04863          	bgtz	a1,4618 <__umodsi3+0x24>
    460c:	40b005b3          	neg	a1,a1
    4610:	f9dff06f          	j	45ac <__hidden___udivsi3>
    4614:	40b005b3          	neg	a1,a1
    4618:	00008293          	mv	t0,ra
    461c:	f91ff0ef          	jal	45ac <__hidden___udivsi3>
    4620:	40a00533          	neg	a0,a0
    4624:	00028067          	jr	t0

00004628 <__modsi3>:
    4628:	00008293          	mv	t0,ra
    462c:	0005ca63          	bltz	a1,4640 <__modsi3+0x18>
    4630:	00054c63          	bltz	a0,4648 <__modsi3+0x20>
    4634:	f79ff0ef          	jal	45ac <__hidden___udivsi3>
    4638:	00058513          	mv	a0,a1
    463c:	00028067          	jr	t0
    4640:	40b005b3          	neg	a1,a1
    4644:	fe0558e3          	bgez	a0,4634 <__modsi3+0xc>
    4648:	40a00533          	neg	a0,a0
    464c:	f61ff0ef          	jal	45ac <__hidden___udivsi3>
    4650:	40b00533          	neg	a0,a1
    4654:	00028067          	jr	t0
