
extreme_complex_test.elf:     file format elf32-littleriscv


Disassembly of section .init:

00000000 <_start>:
   0:	00008117          	auipc	sp,0x8
   4:	ffc10113          	addi	sp,sp,-4 # 7ffc <__stack_top>
   8:	00010433          	add	s0,sp,zero
   c:	000022b7          	lui	t0,0x2
  10:	034000ef          	jal	44 <main>
  14:	00000513          	li	a0,0
  18:	0040006f          	j	1c <tohost_exit>

0000001c <tohost_exit>:
  1c:	00151513          	slli	a0,a0,0x1
  20:	00156513          	ori	a0,a0,1
  24:	00008337          	lui	t1,0x8
  28:	01030313          	addi	t1,t1,16 # 8010 <__stack_top+0x14>
  2c:	09000593          	li	a1,144
  30:	00007297          	auipc	t0,0x7
  34:	fd028293          	addi	t0,t0,-48 # 7000 <tohost>
  38:	00a2a023          	sw	a0,0(t0)
  3c:	00b32023          	sw	a1,0(t1)
  40:	0000006f          	j	40 <tohost_exit+0x24>

Disassembly of section .text:

00000044 <main>:
      44:	f7010113          	addi	sp,sp,-144
      48:	08112623          	sw	ra,140(sp)
      4c:	08812423          	sw	s0,136(sp)
      50:	08912223          	sw	s1,132(sp)
      54:	09010413          	addi	s0,sp,144
      58:	ffffe2b7          	lui	t0,0xffffe
      5c:	00510133          	add	sp,sp,t0
      60:	000037b7          	lui	a5,0x3
      64:	03978793          	addi	a5,a5,57 # 3039 <main+0x2ff5>
      68:	cef42c23          	sw	a5,-776(s0)
      6c:	000067b7          	lui	a5,0x6
      70:	ba078793          	addi	a5,a5,-1120 # 5ba0 <__BSS_END__+0x924>
      74:	cef42e23          	sw	a5,-772(s0)
      78:	000087b7          	lui	a5,0x8
      7c:	70778793          	addi	a5,a5,1799 # 8707 <__stack_top+0x70b>
      80:	d0f42023          	sw	a5,-768(s0)
      84:	0000b7b7          	lui	a5,0xb
      88:	26e78793          	addi	a5,a5,622 # b26e <__stack_top+0x3272>
      8c:	d0f42223          	sw	a5,-764(s0)
      90:	0000e7b7          	lui	a5,0xe
      94:	dd578793          	addi	a5,a5,-555 # ddd5 <__stack_top+0x5dd9>
      98:	d0f42423          	sw	a5,-760(s0)
      9c:	000117b7          	lui	a5,0x11
      a0:	93278793          	addi	a5,a5,-1742 # 10932 <__stack_top+0x8936>
      a4:	d0f42623          	sw	a5,-756(s0)
      a8:	000137b7          	lui	a5,0x13
      ac:	43578793          	addi	a5,a5,1077 # 13435 <__stack_top+0xb439>
      b0:	d0f42823          	sw	a5,-752(s0)
      b4:	000167b7          	lui	a5,0x16
      b8:	bb478793          	addi	a5,a5,-1100 # 15bb4 <__stack_top+0xdbb8>
      bc:	d0f42a23          	sw	a5,-748(s0)
      c0:	000167b7          	lui	a5,0x16
      c4:	00b78793          	addi	a5,a5,11 # 1600b <__stack_top+0xe00f>
      c8:	d0f42c23          	sw	a5,-744(s0)
      cc:	000037b7          	lui	a5,0x3
      d0:	b6778793          	addi	a5,a5,-1177 # 2b67 <main+0x2b23>
      d4:	d0f42e23          	sw	a5,-740(s0)
      d8:	00a00793          	li	a5,10
      dc:	fef42223          	sw	a5,-28(s0)
      e0:	0240006f          	j	104 <main+0xc0>
      e4:	fe442703          	lw	a4,-28(s0)
      e8:	cf840793          	addi	a5,s0,-776
      ec:	00271713          	slli	a4,a4,0x2
      f0:	00f707b3          	add	a5,a4,a5
      f4:	0007a023          	sw	zero,0(a5)
      f8:	fe442783          	lw	a5,-28(s0)
      fc:	00178793          	addi	a5,a5,1
     100:	fef42223          	sw	a5,-28(s0)
     104:	fe442703          	lw	a4,-28(s0)
     108:	06300793          	li	a5,99
     10c:	fce7dce3          	bge	a5,a4,e4 <main+0xa0>
     110:	7be00793          	li	a5,1982
     114:	d2f42023          	sw	a5,-736(s0)
     118:	fe042623          	sw	zero,-20(s0)
     11c:	01100793          	li	a5,17
     120:	fef42423          	sw	a5,-24(s0)
     124:	fe042223          	sw	zero,-28(s0)
     128:	02c0006f          	j	154 <main+0x110>
     12c:	ffffe7b7          	lui	a5,0xffffe
     130:	ff078793          	addi	a5,a5,-16 # ffffdff0 <__stack_top+0xffff5ff4>
     134:	00878733          	add	a4,a5,s0
     138:	fe442783          	lw	a5,-28(s0)
     13c:	00279793          	slli	a5,a5,0x2
     140:	00f707b3          	add	a5,a4,a5
     144:	0c07aa23          	sw	zero,212(a5)
     148:	fe442783          	lw	a5,-28(s0)
     14c:	00178793          	addi	a5,a5,1
     150:	fef42223          	sw	a5,-28(s0)
     154:	fe442703          	lw	a4,-28(s0)
     158:	01300793          	li	a5,19
     15c:	fce7d8e3          	bge	a5,a4,12c <main+0xe8>
     160:	fe042223          	sw	zero,-28(s0)
     164:	02c0006f          	j	190 <main+0x14c>
     168:	ffffe7b7          	lui	a5,0xffffe
     16c:	ff078793          	addi	a5,a5,-16 # ffffdff0 <__stack_top+0xffff5ff4>
     170:	00878733          	add	a4,a5,s0
     174:	fe442783          	lw	a5,-28(s0)
     178:	00279793          	slli	a5,a5,0x2
     17c:	00f707b3          	add	a5,a4,a5
     180:	0a07a623          	sw	zero,172(a5)
     184:	fe442783          	lw	a5,-28(s0)
     188:	00178793          	addi	a5,a5,1
     18c:	fef42223          	sw	a5,-28(s0)
     190:	fe442703          	lw	a4,-28(s0)
     194:	00900793          	li	a5,9
     198:	fce7d8e3          	bge	a5,a4,168 <main+0x124>
     19c:	07d00793          	li	a5,125
     1a0:	d2f42023          	sw	a5,-736(s0)
     1a4:	fe042223          	sw	zero,-28(s0)
     1a8:	11c0006f          	j	2c4 <main+0x280>
     1ac:	fe442783          	lw	a5,-28(s0)
     1b0:	d2f42023          	sw	a5,-736(s0)
     1b4:	fe042023          	sw	zero,-32(s0)
     1b8:	0b00006f          	j	268 <main+0x224>
     1bc:	fe442703          	lw	a4,-28(s0)
     1c0:	00070793          	mv	a5,a4
     1c4:	00179793          	slli	a5,a5,0x1
     1c8:	00e787b3          	add	a5,a5,a4
     1cc:	00279793          	slli	a5,a5,0x2
     1d0:	fe042703          	lw	a4,-32(s0)
     1d4:	00e78733          	add	a4,a5,a4
     1d8:	ab840793          	addi	a5,s0,-1352
     1dc:	00271713          	slli	a4,a4,0x2
     1e0:	00f707b3          	add	a5,a4,a5
     1e4:	0007a023          	sw	zero,0(a5)
     1e8:	fe442703          	lw	a4,-28(s0)
     1ec:	00070793          	mv	a5,a4
     1f0:	00179793          	slli	a5,a5,0x1
     1f4:	00e787b3          	add	a5,a5,a4
     1f8:	00279793          	slli	a5,a5,0x2
     1fc:	fe042703          	lw	a4,-32(s0)
     200:	00e78733          	add	a4,a5,a4
     204:	87840793          	addi	a5,s0,-1928
     208:	00271713          	slli	a4,a4,0x2
     20c:	00f707b3          	add	a5,a4,a5
     210:	00002737          	lui	a4,0x2
     214:	70f70713          	addi	a4,a4,1807 # 270f <main+0x26cb>
     218:	00e7a023          	sw	a4,0(a5)
     21c:	fffff7b7          	lui	a5,0xfffff
     220:	ff078793          	addi	a5,a5,-16 # ffffeff0 <__stack_top+0xffff6ff4>
     224:	008786b3          	add	a3,a5,s0
     228:	fe442703          	lw	a4,-28(s0)
     22c:	00070793          	mv	a5,a4
     230:	00179793          	slli	a5,a5,0x1
     234:	00e787b3          	add	a5,a5,a4
     238:	00279793          	slli	a5,a5,0x2
     23c:	fe042703          	lw	a4,-32(s0)
     240:	00e787b3          	add	a5,a5,a4
     244:	00279793          	slli	a5,a5,0x2
     248:	00f687b3          	add	a5,a3,a5
     24c:	fff00713          	li	a4,-1
     250:	64e7a423          	sw	a4,1608(a5)
     254:	fe042783          	lw	a5,-32(s0)
     258:	d2f42223          	sw	a5,-732(s0)
     25c:	fe042783          	lw	a5,-32(s0)
     260:	00178793          	addi	a5,a5,1
     264:	fef42023          	sw	a5,-32(s0)
     268:	fe042703          	lw	a4,-32(s0)
     26c:	00b00793          	li	a5,11
     270:	f4e7d6e3          	bge	a5,a4,1bc <main+0x178>
     274:	fe442703          	lw	a4,-28(s0)
     278:	00070793          	mv	a5,a4
     27c:	00179793          	slli	a5,a5,0x1
     280:	00e787b3          	add	a5,a5,a4
     284:	00279793          	slli	a5,a5,0x2
     288:	00e787b3          	add	a5,a5,a4
     28c:	00279793          	slli	a5,a5,0x2
     290:	ff078793          	addi	a5,a5,-16
     294:	008787b3          	add	a5,a5,s0
     298:	8807a423          	sw	zero,-1912(a5)
     29c:	fffff7b7          	lui	a5,0xfffff
     2a0:	ff078793          	addi	a5,a5,-16 # ffffeff0 <__stack_top+0xffff6ff4>
     2a4:	00878733          	add	a4,a5,s0
     2a8:	fe442783          	lw	a5,-28(s0)
     2ac:	00279793          	slli	a5,a5,0x2
     2b0:	00f707b3          	add	a5,a4,a5
     2b4:	6007ac23          	sw	zero,1560(a5)
     2b8:	fe442783          	lw	a5,-28(s0)
     2bc:	00178793          	addi	a5,a5,1
     2c0:	fef42223          	sw	a5,-28(s0)
     2c4:	fe442703          	lw	a4,-28(s0)
     2c8:	00b00793          	li	a5,11
     2cc:	eee7d0e3          	bge	a5,a4,1ac <main+0x168>
     2d0:	00700793          	li	a5,7
     2d4:	aaf42e23          	sw	a5,-1348(s0)
     2d8:	00900793          	li	a5,9
     2dc:	acf42023          	sw	a5,-1344(s0)
     2e0:	00e00793          	li	a5,14
     2e4:	acf42623          	sw	a5,-1332(s0)
     2e8:	00a00793          	li	a5,10
     2ec:	aef42823          	sw	a5,-1296(s0)
     2f0:	00f00793          	li	a5,15
     2f4:	aef42a23          	sw	a5,-1292(s0)
     2f8:	00b00793          	li	a5,11
     2fc:	b2f42223          	sw	a5,-1244(s0)
     300:	00200793          	li	a5,2
     304:	b2f42623          	sw	a5,-1236(s0)
     308:	00600793          	li	a5,6
     30c:	b4f42c23          	sw	a5,-1192(s0)
     310:	00900793          	li	a5,9
     314:	b8f42623          	sw	a5,-1140(s0)
     318:	00300793          	li	a5,3
     31c:	bcf42023          	sw	a5,-1088(s0)
     320:	00800793          	li	a5,8
     324:	bef42a23          	sw	a5,-1036(s0)
     328:	00c00793          	li	a5,12
     32c:	c2f42423          	sw	a5,-984(s0)
     330:	00400793          	li	a5,4
     334:	c4f42e23          	sw	a5,-932(s0)
     338:	00700793          	li	a5,7
     33c:	c8f42823          	sw	a5,-880(s0)
     340:	00500793          	li	a5,5
     344:	ccf42223          	sw	a5,-828(s0)
     348:	00d00793          	li	a5,13
     34c:	c0f42223          	sw	a5,-1020(s0)
     350:	01000793          	li	a5,16
     354:	b6f42223          	sw	a5,-1180(s0)
     358:	01200793          	li	a5,18
     35c:	b0f42423          	sw	a5,-1272(s0)
     360:	86042c23          	sw	zero,-1928(s0)
     364:	fc042e23          	sw	zero,-36(s0)
     368:	24c0006f          	j	5b4 <main+0x570>
     36c:	000027b7          	lui	a5,0x2
     370:	70f78793          	addi	a5,a5,1807 # 270f <main+0x26cb>
     374:	fcf42c23          	sw	a5,-40(s0)
     378:	fff00793          	li	a5,-1
     37c:	fcf42a23          	sw	a5,-44(s0)
     380:	fe042223          	sw	zero,-28(s0)
     384:	0840006f          	j	408 <main+0x3c4>
     388:	fffff7b7          	lui	a5,0xfffff
     38c:	ff078793          	addi	a5,a5,-16 # ffffeff0 <__stack_top+0xffff6ff4>
     390:	00878733          	add	a4,a5,s0
     394:	fe442783          	lw	a5,-28(s0)
     398:	00279793          	slli	a5,a5,0x2
     39c:	00f707b3          	add	a5,a4,a5
     3a0:	6187a783          	lw	a5,1560(a5)
     3a4:	04079063          	bnez	a5,3e4 <main+0x3a0>
     3a8:	fe442703          	lw	a4,-28(s0)
     3ac:	87840793          	addi	a5,s0,-1928
     3b0:	00271713          	slli	a4,a4,0x2
     3b4:	00f707b3          	add	a5,a4,a5
     3b8:	0007a783          	lw	a5,0(a5)
     3bc:	fd842703          	lw	a4,-40(s0)
     3c0:	02e7d263          	bge	a5,a4,3e4 <main+0x3a0>
     3c4:	fe442703          	lw	a4,-28(s0)
     3c8:	87840793          	addi	a5,s0,-1928
     3cc:	00271713          	slli	a4,a4,0x2
     3d0:	00f707b3          	add	a5,a4,a5
     3d4:	0007a783          	lw	a5,0(a5)
     3d8:	fcf42c23          	sw	a5,-40(s0)
     3dc:	fe442783          	lw	a5,-28(s0)
     3e0:	fcf42a23          	sw	a5,-44(s0)
     3e4:	fe442783          	lw	a5,-28(s0)
     3e8:	d2f42023          	sw	a5,-736(s0)
     3ec:	fd842783          	lw	a5,-40(s0)
     3f0:	d2f42223          	sw	a5,-732(s0)
     3f4:	fd442783          	lw	a5,-44(s0)
     3f8:	d2f42423          	sw	a5,-728(s0)
     3fc:	fe442783          	lw	a5,-28(s0)
     400:	00178793          	addi	a5,a5,1
     404:	fef42223          	sw	a5,-28(s0)
     408:	fe442703          	lw	a4,-28(s0)
     40c:	00b00793          	li	a5,11
     410:	f6e7dce3          	bge	a5,a4,388 <main+0x344>
     414:	fd442703          	lw	a4,-44(s0)
     418:	fff00793          	li	a5,-1
     41c:	1af70463          	beq	a4,a5,5c4 <main+0x580>
     420:	fffff7b7          	lui	a5,0xfffff
     424:	ff078793          	addi	a5,a5,-16 # ffffeff0 <__stack_top+0xffff6ff4>
     428:	00878733          	add	a4,a5,s0
     42c:	fd442783          	lw	a5,-44(s0)
     430:	00279793          	slli	a5,a5,0x2
     434:	00f707b3          	add	a5,a4,a5
     438:	00100713          	li	a4,1
     43c:	60e7ac23          	sw	a4,1560(a5)
     440:	ffffe7b7          	lui	a5,0xffffe
     444:	ff078793          	addi	a5,a5,-16 # ffffdff0 <__stack_top+0xffff5ff4>
     448:	008787b3          	add	a5,a5,s0
     44c:	0ac7a783          	lw	a5,172(a5)
     450:	00178713          	addi	a4,a5,1
     454:	ffffe7b7          	lui	a5,0xffffe
     458:	ff078793          	addi	a5,a5,-16 # ffffdff0 <__stack_top+0xffff5ff4>
     45c:	008787b3          	add	a5,a5,s0
     460:	0ae7a623          	sw	a4,172(a5)
     464:	fe042223          	sw	zero,-28(s0)
     468:	1340006f          	j	59c <main+0x558>
     46c:	fffff7b7          	lui	a5,0xfffff
     470:	ff078793          	addi	a5,a5,-16 # ffffeff0 <__stack_top+0xffff6ff4>
     474:	00878733          	add	a4,a5,s0
     478:	fe442783          	lw	a5,-28(s0)
     47c:	00279793          	slli	a5,a5,0x2
     480:	00f707b3          	add	a5,a4,a5
     484:	6187a783          	lw	a5,1560(a5)
     488:	0e079863          	bnez	a5,578 <main+0x534>
     48c:	fd442703          	lw	a4,-44(s0)
     490:	00070793          	mv	a5,a4
     494:	00179793          	slli	a5,a5,0x1
     498:	00e787b3          	add	a5,a5,a4
     49c:	00279793          	slli	a5,a5,0x2
     4a0:	fe442703          	lw	a4,-28(s0)
     4a4:	00e78733          	add	a4,a5,a4
     4a8:	ab840793          	addi	a5,s0,-1352
     4ac:	00271713          	slli	a4,a4,0x2
     4b0:	00f707b3          	add	a5,a4,a5
     4b4:	0007a783          	lw	a5,0(a5)
     4b8:	0cf05063          	blez	a5,578 <main+0x534>
     4bc:	fd442703          	lw	a4,-44(s0)
     4c0:	87840793          	addi	a5,s0,-1928
     4c4:	00271713          	slli	a4,a4,0x2
     4c8:	00f707b3          	add	a5,a4,a5
     4cc:	0007a683          	lw	a3,0(a5)
     4d0:	fd442703          	lw	a4,-44(s0)
     4d4:	00070793          	mv	a5,a4
     4d8:	00179793          	slli	a5,a5,0x1
     4dc:	00e787b3          	add	a5,a5,a4
     4e0:	00279793          	slli	a5,a5,0x2
     4e4:	fe442703          	lw	a4,-28(s0)
     4e8:	00e78733          	add	a4,a5,a4
     4ec:	ab840793          	addi	a5,s0,-1352
     4f0:	00271713          	slli	a4,a4,0x2
     4f4:	00f707b3          	add	a5,a4,a5
     4f8:	0007a783          	lw	a5,0(a5)
     4fc:	00f687b3          	add	a5,a3,a5
     500:	f2f42423          	sw	a5,-216(s0)
     504:	fe442703          	lw	a4,-28(s0)
     508:	87840793          	addi	a5,s0,-1928
     50c:	00271713          	slli	a4,a4,0x2
     510:	00f707b3          	add	a5,a4,a5
     514:	0007a783          	lw	a5,0(a5)
     518:	f2842703          	lw	a4,-216(s0)
     51c:	04f75e63          	bge	a4,a5,578 <main+0x534>
     520:	fe442703          	lw	a4,-28(s0)
     524:	87840793          	addi	a5,s0,-1928
     528:	00271713          	slli	a4,a4,0x2
     52c:	00f707b3          	add	a5,a4,a5
     530:	f2842703          	lw	a4,-216(s0)
     534:	00e7a023          	sw	a4,0(a5)
     538:	fffff7b7          	lui	a5,0xfffff
     53c:	ff078793          	addi	a5,a5,-16 # ffffeff0 <__stack_top+0xffff6ff4>
     540:	00878733          	add	a4,a5,s0
     544:	fe442783          	lw	a5,-28(s0)
     548:	00279793          	slli	a5,a5,0x2
     54c:	00f707b3          	add	a5,a4,a5
     550:	fd442703          	lw	a4,-44(s0)
     554:	64e7a423          	sw	a4,1608(a5)
     558:	fe842703          	lw	a4,-24(s0)
     55c:	f2842783          	lw	a5,-216(s0)
     560:	00f707b3          	add	a5,a4,a5
     564:	1af00593          	li	a1,431
     568:	00078513          	mv	a0,a5
     56c:	4b9030ef          	jal	4224 <__modsi3>
     570:	00050793          	mv	a5,a0
     574:	fef42423          	sw	a5,-24(s0)
     578:	fe442783          	lw	a5,-28(s0)
     57c:	d2f42023          	sw	a5,-736(s0)
     580:	fe842783          	lw	a5,-24(s0)
     584:	d2f42223          	sw	a5,-732(s0)
     588:	fe842783          	lw	a5,-24(s0)
     58c:	d2f42423          	sw	a5,-728(s0)
     590:	fe442783          	lw	a5,-28(s0)
     594:	00178793          	addi	a5,a5,1
     598:	fef42223          	sw	a5,-28(s0)
     59c:	fe442703          	lw	a4,-28(s0)
     5a0:	00b00793          	li	a5,11
     5a4:	ece7d4e3          	bge	a5,a4,46c <main+0x428>
     5a8:	fdc42783          	lw	a5,-36(s0)
     5ac:	00178793          	addi	a5,a5,1
     5b0:	fcf42e23          	sw	a5,-36(s0)
     5b4:	fdc42703          	lw	a4,-36(s0)
     5b8:	00b00793          	li	a5,11
     5bc:	dae7d8e3          	bge	a5,a4,36c <main+0x328>
     5c0:	0080006f          	j	5c8 <main+0x584>
     5c4:	00000013          	nop
     5c8:	8a442703          	lw	a4,-1884(s0)
     5cc:	ffffe7b7          	lui	a5,0xffffe
     5d0:	ff078793          	addi	a5,a5,-16 # ffffdff0 <__stack_top+0xffff5ff4>
     5d4:	008787b3          	add	a5,a5,s0
     5d8:	0ce7aa23          	sw	a4,212(a5)
     5dc:	ffffe7b7          	lui	a5,0xffffe
     5e0:	ff078793          	addi	a5,a5,-16 # ffffdff0 <__stack_top+0xffff5ff4>
     5e4:	008787b3          	add	a5,a5,s0
     5e8:	0d47a783          	lw	a5,212(a5)
     5ec:	fec42703          	lw	a4,-20(s0)
     5f0:	00f707b3          	add	a5,a4,a5
     5f4:	fef42623          	sw	a5,-20(s0)
     5f8:	8a442783          	lw	a5,-1884(s0)
     5fc:	d2f42023          	sw	a5,-736(s0)
     600:	89442783          	lw	a5,-1900(s0)
     604:	d2f42223          	sw	a5,-732(s0)
     608:	fe842783          	lw	a5,-24(s0)
     60c:	d2f42423          	sw	a5,-728(s0)
     610:	ffffe7b7          	lui	a5,0xffffe
     614:	ff078793          	addi	a5,a5,-16 # ffffdff0 <__stack_top+0xffff5ff4>
     618:	008787b3          	add	a5,a5,s0
     61c:	0ac7a783          	lw	a5,172(a5)
     620:	d2f42623          	sw	a5,-724(s0)
     624:	fe042223          	sw	zero,-28(s0)
     628:	04c0006f          	j	674 <main+0x630>
     62c:	fffff7b7          	lui	a5,0xfffff
     630:	ff078793          	addi	a5,a5,-16 # ffffeff0 <__stack_top+0xffff6ff4>
     634:	00878733          	add	a4,a5,s0
     638:	fe442783          	lw	a5,-28(s0)
     63c:	00279793          	slli	a5,a5,0x2
     640:	00f707b3          	add	a5,a4,a5
     644:	6007ac23          	sw	zero,1560(a5)
     648:	fffff7b7          	lui	a5,0xfffff
     64c:	ff078793          	addi	a5,a5,-16 # ffffeff0 <__stack_top+0xffff6ff4>
     650:	00878733          	add	a4,a5,s0
     654:	fe442783          	lw	a5,-28(s0)
     658:	00279793          	slli	a5,a5,0x2
     65c:	00f707b3          	add	a5,a4,a5
     660:	fff00713          	li	a4,-1
     664:	54e7a423          	sw	a4,1352(a5)
     668:	fe442783          	lw	a5,-28(s0)
     66c:	00178793          	addi	a5,a5,1
     670:	fef42223          	sw	a5,-28(s0)
     674:	fe442703          	lw	a4,-28(s0)
     678:	00b00793          	li	a5,11
     67c:	fae7d8e3          	bge	a5,a4,62c <main+0x5e8>
     680:	00b00793          	li	a5,11
     684:	fcf42823          	sw	a5,-48(s0)
     688:	fc042623          	sw	zero,-52(s0)
     68c:	fe042223          	sw	zero,-28(s0)
     690:	1f80006f          	j	888 <main+0x844>
     694:	fffff7b7          	lui	a5,0xfffff
     698:	ff078793          	addi	a5,a5,-16 # ffffeff0 <__stack_top+0xffff6ff4>
     69c:	00878733          	add	a4,a5,s0
     6a0:	fe442783          	lw	a5,-28(s0)
     6a4:	00279793          	slli	a5,a5,0x2
     6a8:	00f707b3          	add	a5,a4,a5
     6ac:	6187a783          	lw	a5,1560(a5)
     6b0:	1c079663          	bnez	a5,87c <main+0x838>
     6b4:	fffff7b7          	lui	a5,0xfffff
     6b8:	ff078793          	addi	a5,a5,-16 # ffffeff0 <__stack_top+0xffff6ff4>
     6bc:	00878733          	add	a4,a5,s0
     6c0:	fcc42783          	lw	a5,-52(s0)
     6c4:	00279793          	slli	a5,a5,0x2
     6c8:	00f707b3          	add	a5,a4,a5
     6cc:	fe442703          	lw	a4,-28(s0)
     6d0:	5ce7a423          	sw	a4,1480(a5)
     6d4:	fcc42783          	lw	a5,-52(s0)
     6d8:	00178793          	addi	a5,a5,1
     6dc:	fcf42623          	sw	a5,-52(s0)
     6e0:	1940006f          	j	874 <main+0x830>
     6e4:	fcc42783          	lw	a5,-52(s0)
     6e8:	fff78793          	addi	a5,a5,-1
     6ec:	fcf42623          	sw	a5,-52(s0)
     6f0:	fffff7b7          	lui	a5,0xfffff
     6f4:	ff078793          	addi	a5,a5,-16 # ffffeff0 <__stack_top+0xffff6ff4>
     6f8:	00878733          	add	a4,a5,s0
     6fc:	fcc42783          	lw	a5,-52(s0)
     700:	00279793          	slli	a5,a5,0x2
     704:	00f707b3          	add	a5,a4,a5
     708:	5c87a783          	lw	a5,1480(a5)
     70c:	e8f42423          	sw	a5,-376(s0)
     710:	fffff7b7          	lui	a5,0xfffff
     714:	ff078793          	addi	a5,a5,-16 # ffffeff0 <__stack_top+0xffff6ff4>
     718:	00878733          	add	a4,a5,s0
     71c:	e8842783          	lw	a5,-376(s0)
     720:	00279793          	slli	a5,a5,0x2
     724:	00f707b3          	add	a5,a4,a5
     728:	6187a783          	lw	a5,1560(a5)
     72c:	14079463          	bnez	a5,874 <main+0x830>
     730:	fffff7b7          	lui	a5,0xfffff
     734:	ff078793          	addi	a5,a5,-16 # ffffeff0 <__stack_top+0xffff6ff4>
     738:	00878733          	add	a4,a5,s0
     73c:	e8842783          	lw	a5,-376(s0)
     740:	00279793          	slli	a5,a5,0x2
     744:	00f707b3          	add	a5,a4,a5
     748:	00100713          	li	a4,1
     74c:	60e7ac23          	sw	a4,1560(a5)
     750:	ffffe7b7          	lui	a5,0xffffe
     754:	ff078793          	addi	a5,a5,-16 # ffffdff0 <__stack_top+0xffff5ff4>
     758:	008787b3          	add	a5,a5,s0
     75c:	0b07a783          	lw	a5,176(a5)
     760:	00178713          	addi	a4,a5,1
     764:	ffffe7b7          	lui	a5,0xffffe
     768:	ff078793          	addi	a5,a5,-16 # ffffdff0 <__stack_top+0xffff5ff4>
     76c:	008787b3          	add	a5,a5,s0
     770:	0ae7a823          	sw	a4,176(a5)
     774:	fffff7b7          	lui	a5,0xfffff
     778:	ff078793          	addi	a5,a5,-16 # ffffeff0 <__stack_top+0xffff6ff4>
     77c:	00878733          	add	a4,a5,s0
     780:	fd042783          	lw	a5,-48(s0)
     784:	00279793          	slli	a5,a5,0x2
     788:	00f707b3          	add	a5,a4,a5
     78c:	e8842703          	lw	a4,-376(s0)
     790:	54e7a423          	sw	a4,1352(a5)
     794:	fd042783          	lw	a5,-48(s0)
     798:	fff78793          	addi	a5,a5,-1
     79c:	fcf42823          	sw	a5,-48(s0)
     7a0:	00b00793          	li	a5,11
     7a4:	fef42023          	sw	a5,-32(s0)
     7a8:	0980006f          	j	840 <main+0x7fc>
     7ac:	e8842703          	lw	a4,-376(s0)
     7b0:	00070793          	mv	a5,a4
     7b4:	00179793          	slli	a5,a5,0x1
     7b8:	00e787b3          	add	a5,a5,a4
     7bc:	00279793          	slli	a5,a5,0x2
     7c0:	fe042703          	lw	a4,-32(s0)
     7c4:	00e78733          	add	a4,a5,a4
     7c8:	ab840793          	addi	a5,s0,-1352
     7cc:	00271713          	slli	a4,a4,0x2
     7d0:	00f707b3          	add	a5,a4,a5
     7d4:	0007a783          	lw	a5,0(a5)
     7d8:	04f05e63          	blez	a5,834 <main+0x7f0>
     7dc:	fffff7b7          	lui	a5,0xfffff
     7e0:	ff078793          	addi	a5,a5,-16 # ffffeff0 <__stack_top+0xffff6ff4>
     7e4:	00878733          	add	a4,a5,s0
     7e8:	fe042783          	lw	a5,-32(s0)
     7ec:	00279793          	slli	a5,a5,0x2
     7f0:	00f707b3          	add	a5,a4,a5
     7f4:	6187a783          	lw	a5,1560(a5)
     7f8:	02079e63          	bnez	a5,834 <main+0x7f0>
     7fc:	fcc42703          	lw	a4,-52(s0)
     800:	01200793          	li	a5,18
     804:	02e7c863          	blt	a5,a4,834 <main+0x7f0>
     808:	fffff7b7          	lui	a5,0xfffff
     80c:	ff078793          	addi	a5,a5,-16 # ffffeff0 <__stack_top+0xffff6ff4>
     810:	00878733          	add	a4,a5,s0
     814:	fcc42783          	lw	a5,-52(s0)
     818:	00279793          	slli	a5,a5,0x2
     81c:	00f707b3          	add	a5,a4,a5
     820:	fe042703          	lw	a4,-32(s0)
     824:	5ce7a423          	sw	a4,1480(a5)
     828:	fcc42783          	lw	a5,-52(s0)
     82c:	00178793          	addi	a5,a5,1
     830:	fcf42623          	sw	a5,-52(s0)
     834:	fe042783          	lw	a5,-32(s0)
     838:	fff78793          	addi	a5,a5,-1
     83c:	fef42023          	sw	a5,-32(s0)
     840:	fe042783          	lw	a5,-32(s0)
     844:	f607d4e3          	bgez	a5,7ac <main+0x768>
     848:	e8842703          	lw	a4,-376(s0)
     84c:	00070793          	mv	a5,a4
     850:	00379793          	slli	a5,a5,0x3
     854:	40e78733          	sub	a4,a5,a4
     858:	fe842783          	lw	a5,-24(s0)
     85c:	00f707b3          	add	a5,a4,a5
     860:	18d00593          	li	a1,397
     864:	00078513          	mv	a0,a5
     868:	1bd030ef          	jal	4224 <__modsi3>
     86c:	00050793          	mv	a5,a0
     870:	fef42423          	sw	a5,-24(s0)
     874:	fcc42783          	lw	a5,-52(s0)
     878:	e6f046e3          	bgtz	a5,6e4 <main+0x6a0>
     87c:	fe442783          	lw	a5,-28(s0)
     880:	00178793          	addi	a5,a5,1
     884:	fef42223          	sw	a5,-28(s0)
     888:	fe442703          	lw	a4,-28(s0)
     88c:	00b00793          	li	a5,11
     890:	e0e7d2e3          	bge	a5,a4,694 <main+0x650>
     894:	fffff7b7          	lui	a5,0xfffff
     898:	ff078793          	addi	a5,a5,-16 # ffffeff0 <__stack_top+0xffff6ff4>
     89c:	008787b3          	add	a5,a5,s0
     8a0:	5487a703          	lw	a4,1352(a5)
     8a4:	ffffe7b7          	lui	a5,0xffffe
     8a8:	ff078793          	addi	a5,a5,-16 # ffffdff0 <__stack_top+0xffff5ff4>
     8ac:	008787b3          	add	a5,a5,s0
     8b0:	0ce7ac23          	sw	a4,216(a5)
     8b4:	ffffe7b7          	lui	a5,0xffffe
     8b8:	ff078793          	addi	a5,a5,-16 # ffffdff0 <__stack_top+0xffff5ff4>
     8bc:	008787b3          	add	a5,a5,s0
     8c0:	0d87a703          	lw	a4,216(a5)
     8c4:	00070793          	mv	a5,a4
     8c8:	00179793          	slli	a5,a5,0x1
     8cc:	00e787b3          	add	a5,a5,a4
     8d0:	fec42703          	lw	a4,-20(s0)
     8d4:	00f707b3          	add	a5,a4,a5
     8d8:	fef42623          	sw	a5,-20(s0)
     8dc:	fffff7b7          	lui	a5,0xfffff
     8e0:	ff078793          	addi	a5,a5,-16 # ffffeff0 <__stack_top+0xffff6ff4>
     8e4:	008787b3          	add	a5,a5,s0
     8e8:	5487a783          	lw	a5,1352(a5)
     8ec:	d2f42823          	sw	a5,-720(s0)
     8f0:	fffff7b7          	lui	a5,0xfffff
     8f4:	ff078793          	addi	a5,a5,-16 # ffffeff0 <__stack_top+0xffff6ff4>
     8f8:	008787b3          	add	a5,a5,s0
     8fc:	55c7a783          	lw	a5,1372(a5)
     900:	d2f42a23          	sw	a5,-716(s0)
     904:	ffffe7b7          	lui	a5,0xffffe
     908:	ff078793          	addi	a5,a5,-16 # ffffdff0 <__stack_top+0xffff5ff4>
     90c:	008787b3          	add	a5,a5,s0
     910:	0b07a783          	lw	a5,176(a5)
     914:	d2f42c23          	sw	a5,-712(s0)
     918:	fe842783          	lw	a5,-24(s0)
     91c:	d2f42e23          	sw	a5,-708(s0)
     920:	fe042223          	sw	zero,-28(s0)
     924:	0680006f          	j	98c <main+0x948>
     928:	fe042023          	sw	zero,-32(s0)
     92c:	0480006f          	j	974 <main+0x930>
     930:	fffff7b7          	lui	a5,0xfffff
     934:	ff078793          	addi	a5,a5,-16 # ffffeff0 <__stack_top+0xffff6ff4>
     938:	008786b3          	add	a3,a5,s0
     93c:	fe442703          	lw	a4,-28(s0)
     940:	00070793          	mv	a5,a4
     944:	00179793          	slli	a5,a5,0x1
     948:	00e787b3          	add	a5,a5,a4
     94c:	00379793          	slli	a5,a5,0x3
     950:	00e787b3          	add	a5,a5,a4
     954:	fe042703          	lw	a4,-32(s0)
     958:	00e787b3          	add	a5,a5,a4
     95c:	00279793          	slli	a5,a5,0x2
     960:	00f687b3          	add	a5,a3,a5
     964:	f607a623          	sw	zero,-148(a5)
     968:	fe042783          	lw	a5,-32(s0)
     96c:	00178793          	addi	a5,a5,1
     970:	fef42023          	sw	a5,-32(s0)
     974:	fe042703          	lw	a4,-32(s0)
     978:	01800793          	li	a5,24
     97c:	fae7dae3          	bge	a5,a4,930 <main+0x8ec>
     980:	fe442783          	lw	a5,-28(s0)
     984:	00178793          	addi	a5,a5,1
     988:	fef42223          	sw	a5,-28(s0)
     98c:	fe442703          	lw	a4,-28(s0)
     990:	00e00793          	li	a5,14
     994:	f8e7dae3          	bge	a5,a4,928 <main+0x8e4>
     998:	ffffe7b7          	lui	a5,0xffffe
     99c:	ff078793          	addi	a5,a5,-16 # ffffdff0 <__stack_top+0xffff5ff4>
     9a0:	008787b3          	add	a5,a5,s0
     9a4:	00200713          	li	a4,2
     9a8:	04e7aa23          	sw	a4,84(a5)
     9ac:	ffffe7b7          	lui	a5,0xffffe
     9b0:	ff078793          	addi	a5,a5,-16 # ffffdff0 <__stack_top+0xffff5ff4>
     9b4:	008787b3          	add	a5,a5,s0
     9b8:	00300713          	li	a4,3
     9bc:	00e7ae23          	sw	a4,28(a5)
     9c0:	ffffe7b7          	lui	a5,0xffffe
     9c4:	ff078793          	addi	a5,a5,-16 # ffffdff0 <__stack_top+0xffff5ff4>
     9c8:	008787b3          	add	a5,a5,s0
     9cc:	00300713          	li	a4,3
     9d0:	04e7ac23          	sw	a4,88(a5)
     9d4:	ffffe7b7          	lui	a5,0xffffe
     9d8:	ff078793          	addi	a5,a5,-16 # ffffdff0 <__stack_top+0xffff5ff4>
     9dc:	008787b3          	add	a5,a5,s0
     9e0:	00400713          	li	a4,4
     9e4:	02e7a023          	sw	a4,32(a5)
     9e8:	ffffe7b7          	lui	a5,0xffffe
     9ec:	ff078793          	addi	a5,a5,-16 # ffffdff0 <__stack_top+0xffff5ff4>
     9f0:	008787b3          	add	a5,a5,s0
     9f4:	00400713          	li	a4,4
     9f8:	04e7ae23          	sw	a4,92(a5)
     9fc:	ffffe7b7          	lui	a5,0xffffe
     a00:	ff078793          	addi	a5,a5,-16 # ffffdff0 <__stack_top+0xffff5ff4>
     a04:	008787b3          	add	a5,a5,s0
     a08:	00700713          	li	a4,7
     a0c:	02e7a223          	sw	a4,36(a5)
     a10:	ffffe7b7          	lui	a5,0xffffe
     a14:	ff078793          	addi	a5,a5,-16 # ffffdff0 <__stack_top+0xffff5ff4>
     a18:	008787b3          	add	a5,a5,s0
     a1c:	00500713          	li	a4,5
     a20:	06e7a023          	sw	a4,96(a5)
     a24:	ffffe7b7          	lui	a5,0xffffe
     a28:	ff078793          	addi	a5,a5,-16 # ffffdff0 <__stack_top+0xffff5ff4>
     a2c:	008787b3          	add	a5,a5,s0
     a30:	00800713          	li	a4,8
     a34:	02e7a423          	sw	a4,40(a5)
     a38:	ffffe7b7          	lui	a5,0xffffe
     a3c:	ff078793          	addi	a5,a5,-16 # ffffdff0 <__stack_top+0xffff5ff4>
     a40:	008787b3          	add	a5,a5,s0
     a44:	00600713          	li	a4,6
     a48:	06e7a223          	sw	a4,100(a5)
     a4c:	ffffe7b7          	lui	a5,0xffffe
     a50:	ff078793          	addi	a5,a5,-16 # ffffdff0 <__stack_top+0xffff5ff4>
     a54:	008787b3          	add	a5,a5,s0
     a58:	00900713          	li	a4,9
     a5c:	02e7a623          	sw	a4,44(a5)
     a60:	ffffe7b7          	lui	a5,0xffffe
     a64:	ff078793          	addi	a5,a5,-16 # ffffdff0 <__stack_top+0xffff5ff4>
     a68:	008787b3          	add	a5,a5,s0
     a6c:	00700713          	li	a4,7
     a70:	06e7a423          	sw	a4,104(a5)
     a74:	ffffe7b7          	lui	a5,0xffffe
     a78:	ff078793          	addi	a5,a5,-16 # ffffdff0 <__stack_top+0xffff5ff4>
     a7c:	008787b3          	add	a5,a5,s0
     a80:	00b00713          	li	a4,11
     a84:	02e7a823          	sw	a4,48(a5)
     a88:	ffffe7b7          	lui	a5,0xffffe
     a8c:	ff078793          	addi	a5,a5,-16 # ffffdff0 <__stack_top+0xffff5ff4>
     a90:	008787b3          	add	a5,a5,s0
     a94:	00800713          	li	a4,8
     a98:	06e7a623          	sw	a4,108(a5)
     a9c:	ffffe7b7          	lui	a5,0xffffe
     aa0:	ff078793          	addi	a5,a5,-16 # ffffdff0 <__stack_top+0xffff5ff4>
     aa4:	008787b3          	add	a5,a5,s0
     aa8:	00e00713          	li	a4,14
     aac:	02e7aa23          	sw	a4,52(a5)
     ab0:	ffffe7b7          	lui	a5,0xffffe
     ab4:	ff078793          	addi	a5,a5,-16 # ffffdff0 <__stack_top+0xffff5ff4>
     ab8:	008787b3          	add	a5,a5,s0
     abc:	00900713          	li	a4,9
     ac0:	06e7a823          	sw	a4,112(a5)
     ac4:	ffffe7b7          	lui	a5,0xffffe
     ac8:	ff078793          	addi	a5,a5,-16 # ffffdff0 <__stack_top+0xffff5ff4>
     acc:	008787b3          	add	a5,a5,s0
     ad0:	01000713          	li	a4,16
     ad4:	02e7ac23          	sw	a4,56(a5)
     ad8:	ffffe7b7          	lui	a5,0xffffe
     adc:	ff078793          	addi	a5,a5,-16 # ffffdff0 <__stack_top+0xffff5ff4>
     ae0:	008787b3          	add	a5,a5,s0
     ae4:	00a00713          	li	a4,10
     ae8:	06e7aa23          	sw	a4,116(a5)
     aec:	ffffe7b7          	lui	a5,0xffffe
     af0:	ff078793          	addi	a5,a5,-16 # ffffdff0 <__stack_top+0xffff5ff4>
     af4:	008787b3          	add	a5,a5,s0
     af8:	01300713          	li	a4,19
     afc:	02e7ae23          	sw	a4,60(a5)
     b00:	ffffe7b7          	lui	a5,0xffffe
     b04:	ff078793          	addi	a5,a5,-16 # ffffdff0 <__stack_top+0xffff5ff4>
     b08:	008787b3          	add	a5,a5,s0
     b0c:	00300713          	li	a4,3
     b10:	06e7ac23          	sw	a4,120(a5)
     b14:	ffffe7b7          	lui	a5,0xffffe
     b18:	ff078793          	addi	a5,a5,-16 # ffffdff0 <__stack_top+0xffff5ff4>
     b1c:	008787b3          	add	a5,a5,s0
     b20:	00500713          	li	a4,5
     b24:	04e7a023          	sw	a4,64(a5)
     b28:	ffffe7b7          	lui	a5,0xffffe
     b2c:	ff078793          	addi	a5,a5,-16 # ffffdff0 <__stack_top+0xffff5ff4>
     b30:	008787b3          	add	a5,a5,s0
     b34:	00400713          	li	a4,4
     b38:	06e7ae23          	sw	a4,124(a5)
     b3c:	ffffe7b7          	lui	a5,0xffffe
     b40:	ff078793          	addi	a5,a5,-16 # ffffdff0 <__stack_top+0xffff5ff4>
     b44:	008787b3          	add	a5,a5,s0
     b48:	00600713          	li	a4,6
     b4c:	04e7a223          	sw	a4,68(a5)
     b50:	ffffe7b7          	lui	a5,0xffffe
     b54:	ff078793          	addi	a5,a5,-16 # ffffdff0 <__stack_top+0xffff5ff4>
     b58:	008787b3          	add	a5,a5,s0
     b5c:	00500713          	li	a4,5
     b60:	08e7a023          	sw	a4,128(a5)
     b64:	ffffe7b7          	lui	a5,0xffffe
     b68:	ff078793          	addi	a5,a5,-16 # ffffdff0 <__stack_top+0xffff5ff4>
     b6c:	008787b3          	add	a5,a5,s0
     b70:	00900713          	li	a4,9
     b74:	04e7a423          	sw	a4,72(a5)
     b78:	ffffe7b7          	lui	a5,0xffffe
     b7c:	ff078793          	addi	a5,a5,-16 # ffffdff0 <__stack_top+0xffff5ff4>
     b80:	008787b3          	add	a5,a5,s0
     b84:	00600713          	li	a4,6
     b88:	08e7a223          	sw	a4,132(a5)
     b8c:	ffffe7b7          	lui	a5,0xffffe
     b90:	ff078793          	addi	a5,a5,-16 # ffffdff0 <__stack_top+0xffff5ff4>
     b94:	008787b3          	add	a5,a5,s0
     b98:	00a00713          	li	a4,10
     b9c:	04e7a623          	sw	a4,76(a5)
     ba0:	ffffe7b7          	lui	a5,0xffffe
     ba4:	ff078793          	addi	a5,a5,-16 # ffffdff0 <__stack_top+0xffff5ff4>
     ba8:	008787b3          	add	a5,a5,s0
     bac:	00700713          	li	a4,7
     bb0:	08e7a423          	sw	a4,136(a5)
     bb4:	ffffe7b7          	lui	a5,0xffffe
     bb8:	ff078793          	addi	a5,a5,-16 # ffffdff0 <__stack_top+0xffff5ff4>
     bbc:	008787b3          	add	a5,a5,s0
     bc0:	00c00713          	li	a4,12
     bc4:	04e7a823          	sw	a4,80(a5)
     bc8:	01800793          	li	a5,24
     bcc:	f2f42223          	sw	a5,-220(s0)
     bd0:	00100793          	li	a5,1
     bd4:	fef42223          	sw	a5,-28(s0)
     bd8:	29c0006f          	j	e74 <main+0xe30>
     bdc:	00100793          	li	a5,1
     be0:	fef42023          	sw	a5,-32(s0)
     be4:	2780006f          	j	e5c <main+0xe18>
     be8:	fe442783          	lw	a5,-28(s0)
     bec:	fff78793          	addi	a5,a5,-1
     bf0:	ffffe737          	lui	a4,0xffffe
     bf4:	ff070713          	addi	a4,a4,-16 # ffffdff0 <__stack_top+0xffff5ff4>
     bf8:	00870733          	add	a4,a4,s0
     bfc:	00279793          	slli	a5,a5,0x2
     c00:	00f707b3          	add	a5,a4,a5
     c04:	0547a783          	lw	a5,84(a5)
     c08:	fe042703          	lw	a4,-32(s0)
     c0c:	14f74c63          	blt	a4,a5,d64 <main+0xd20>
     c10:	fe442783          	lw	a5,-28(s0)
     c14:	fff78793          	addi	a5,a5,-1
     c18:	ffffe737          	lui	a4,0xffffe
     c1c:	ff070713          	addi	a4,a4,-16 # ffffdff0 <__stack_top+0xffff5ff4>
     c20:	00870733          	add	a4,a4,s0
     c24:	00279793          	slli	a5,a5,0x2
     c28:	00f707b3          	add	a5,a4,a5
     c2c:	01c7a683          	lw	a3,28(a5)
     c30:	fe442783          	lw	a5,-28(s0)
     c34:	fff78713          	addi	a4,a5,-1
     c38:	fe442783          	lw	a5,-28(s0)
     c3c:	fff78793          	addi	a5,a5,-1
     c40:	ffffe637          	lui	a2,0xffffe
     c44:	ff060613          	addi	a2,a2,-16 # ffffdff0 <__stack_top+0xffff5ff4>
     c48:	00860633          	add	a2,a2,s0
     c4c:	00279793          	slli	a5,a5,0x2
     c50:	00f607b3          	add	a5,a2,a5
     c54:	0547a783          	lw	a5,84(a5)
     c58:	fe042603          	lw	a2,-32(s0)
     c5c:	40f605b3          	sub	a1,a2,a5
     c60:	fffff7b7          	lui	a5,0xfffff
     c64:	ff078793          	addi	a5,a5,-16 # ffffeff0 <__stack_top+0xffff6ff4>
     c68:	00878633          	add	a2,a5,s0
     c6c:	00070793          	mv	a5,a4
     c70:	00179793          	slli	a5,a5,0x1
     c74:	00e787b3          	add	a5,a5,a4
     c78:	00379793          	slli	a5,a5,0x3
     c7c:	00e787b3          	add	a5,a5,a4
     c80:	00b787b3          	add	a5,a5,a1
     c84:	00279793          	slli	a5,a5,0x2
     c88:	00f607b3          	add	a5,a2,a5
     c8c:	f6c7a783          	lw	a5,-148(a5)
     c90:	00f687b3          	add	a5,a3,a5
     c94:	e8f42823          	sw	a5,-368(s0)
     c98:	fe442783          	lw	a5,-28(s0)
     c9c:	fff78713          	addi	a4,a5,-1
     ca0:	fffff7b7          	lui	a5,0xfffff
     ca4:	ff078793          	addi	a5,a5,-16 # ffffeff0 <__stack_top+0xffff6ff4>
     ca8:	008786b3          	add	a3,a5,s0
     cac:	00070793          	mv	a5,a4
     cb0:	00179793          	slli	a5,a5,0x1
     cb4:	00e787b3          	add	a5,a5,a4
     cb8:	00379793          	slli	a5,a5,0x3
     cbc:	00e787b3          	add	a5,a5,a4
     cc0:	fe042703          	lw	a4,-32(s0)
     cc4:	00e787b3          	add	a5,a5,a4
     cc8:	00279793          	slli	a5,a5,0x2
     ccc:	00f687b3          	add	a5,a3,a5
     cd0:	f6c7a783          	lw	a5,-148(a5)
     cd4:	e8f42623          	sw	a5,-372(s0)
     cd8:	e9042703          	lw	a4,-368(s0)
     cdc:	e8c42783          	lw	a5,-372(s0)
     ce0:	04e7d263          	bge	a5,a4,d24 <main+0xce0>
     ce4:	fffff7b7          	lui	a5,0xfffff
     ce8:	ff078793          	addi	a5,a5,-16 # ffffeff0 <__stack_top+0xffff6ff4>
     cec:	008786b3          	add	a3,a5,s0
     cf0:	fe442703          	lw	a4,-28(s0)
     cf4:	00070793          	mv	a5,a4
     cf8:	00179793          	slli	a5,a5,0x1
     cfc:	00e787b3          	add	a5,a5,a4
     d00:	00379793          	slli	a5,a5,0x3
     d04:	00e787b3          	add	a5,a5,a4
     d08:	fe042703          	lw	a4,-32(s0)
     d0c:	00e787b3          	add	a5,a5,a4
     d10:	00279793          	slli	a5,a5,0x2
     d14:	00f687b3          	add	a5,a3,a5
     d18:	e9042703          	lw	a4,-368(s0)
     d1c:	f6e7a623          	sw	a4,-148(a5)
     d20:	0b80006f          	j	dd8 <main+0xd94>
     d24:	fffff7b7          	lui	a5,0xfffff
     d28:	ff078793          	addi	a5,a5,-16 # ffffeff0 <__stack_top+0xffff6ff4>
     d2c:	008786b3          	add	a3,a5,s0
     d30:	fe442703          	lw	a4,-28(s0)
     d34:	00070793          	mv	a5,a4
     d38:	00179793          	slli	a5,a5,0x1
     d3c:	00e787b3          	add	a5,a5,a4
     d40:	00379793          	slli	a5,a5,0x3
     d44:	00e787b3          	add	a5,a5,a4
     d48:	fe042703          	lw	a4,-32(s0)
     d4c:	00e787b3          	add	a5,a5,a4
     d50:	00279793          	slli	a5,a5,0x2
     d54:	00f687b3          	add	a5,a3,a5
     d58:	e8c42703          	lw	a4,-372(s0)
     d5c:	f6e7a623          	sw	a4,-148(a5)
     d60:	0780006f          	j	dd8 <main+0xd94>
     d64:	fe442783          	lw	a5,-28(s0)
     d68:	fff78713          	addi	a4,a5,-1
     d6c:	fffff7b7          	lui	a5,0xfffff
     d70:	ff078793          	addi	a5,a5,-16 # ffffeff0 <__stack_top+0xffff6ff4>
     d74:	008786b3          	add	a3,a5,s0
     d78:	00070793          	mv	a5,a4
     d7c:	00179793          	slli	a5,a5,0x1
     d80:	00e787b3          	add	a5,a5,a4
     d84:	00379793          	slli	a5,a5,0x3
     d88:	00e787b3          	add	a5,a5,a4
     d8c:	fe042703          	lw	a4,-32(s0)
     d90:	00e787b3          	add	a5,a5,a4
     d94:	00279793          	slli	a5,a5,0x2
     d98:	00f687b3          	add	a5,a3,a5
     d9c:	f6c7a683          	lw	a3,-148(a5)
     da0:	fffff7b7          	lui	a5,0xfffff
     da4:	ff078793          	addi	a5,a5,-16 # ffffeff0 <__stack_top+0xffff6ff4>
     da8:	00878633          	add	a2,a5,s0
     dac:	fe442703          	lw	a4,-28(s0)
     db0:	00070793          	mv	a5,a4
     db4:	00179793          	slli	a5,a5,0x1
     db8:	00e787b3          	add	a5,a5,a4
     dbc:	00379793          	slli	a5,a5,0x3
     dc0:	00e787b3          	add	a5,a5,a4
     dc4:	fe042703          	lw	a4,-32(s0)
     dc8:	00e787b3          	add	a5,a5,a4
     dcc:	00279793          	slli	a5,a5,0x2
     dd0:	00f607b3          	add	a5,a2,a5
     dd4:	f6d7a623          	sw	a3,-148(a5)
     dd8:	ffffe7b7          	lui	a5,0xffffe
     ddc:	ff078793          	addi	a5,a5,-16 # ffffdff0 <__stack_top+0xffff5ff4>
     de0:	008787b3          	add	a5,a5,s0
     de4:	0b47a783          	lw	a5,180(a5)
     de8:	00178713          	addi	a4,a5,1
     dec:	ffffe7b7          	lui	a5,0xffffe
     df0:	ff078793          	addi	a5,a5,-16 # ffffdff0 <__stack_top+0xffff5ff4>
     df4:	008787b3          	add	a5,a5,s0
     df8:	0ae7aa23          	sw	a4,180(a5)
     dfc:	fffff7b7          	lui	a5,0xfffff
     e00:	ff078793          	addi	a5,a5,-16 # ffffeff0 <__stack_top+0xffff6ff4>
     e04:	008786b3          	add	a3,a5,s0
     e08:	fe442703          	lw	a4,-28(s0)
     e0c:	00070793          	mv	a5,a4
     e10:	00179793          	slli	a5,a5,0x1
     e14:	00e787b3          	add	a5,a5,a4
     e18:	00379793          	slli	a5,a5,0x3
     e1c:	00e787b3          	add	a5,a5,a4
     e20:	fe042703          	lw	a4,-32(s0)
     e24:	00e787b3          	add	a5,a5,a4
     e28:	00279793          	slli	a5,a5,0x2
     e2c:	00f687b3          	add	a5,a3,a5
     e30:	f6c7a703          	lw	a4,-148(a5)
     e34:	fe842783          	lw	a5,-24(s0)
     e38:	00f707b3          	add	a5,a4,a5
     e3c:	17f00593          	li	a1,383
     e40:	00078513          	mv	a0,a5
     e44:	3e0030ef          	jal	4224 <__modsi3>
     e48:	00050793          	mv	a5,a0
     e4c:	fef42423          	sw	a5,-24(s0)
     e50:	fe042783          	lw	a5,-32(s0)
     e54:	00178793          	addi	a5,a5,1
     e58:	fef42023          	sw	a5,-32(s0)
     e5c:	fe042703          	lw	a4,-32(s0)
     e60:	01800793          	li	a5,24
     e64:	d8e7d2e3          	bge	a5,a4,be8 <main+0xba4>
     e68:	fe442783          	lw	a5,-28(s0)
     e6c:	00178793          	addi	a5,a5,1
     e70:	fef42223          	sw	a5,-28(s0)
     e74:	fe442703          	lw	a4,-28(s0)
     e78:	00e00793          	li	a5,14
     e7c:	d6e7d0e3          	bge	a5,a4,bdc <main+0xb98>
     e80:	fffff7b7          	lui	a5,0xfffff
     e84:	ff078793          	addi	a5,a5,-16 # ffffeff0 <__stack_top+0xffff6ff4>
     e88:	008787b3          	add	a5,a5,s0
     e8c:	5447a703          	lw	a4,1348(a5)
     e90:	ffffe7b7          	lui	a5,0xffffe
     e94:	ff078793          	addi	a5,a5,-16 # ffffdff0 <__stack_top+0xffff5ff4>
     e98:	008787b3          	add	a5,a5,s0
     e9c:	0ce7ae23          	sw	a4,220(a5)
     ea0:	ffffe7b7          	lui	a5,0xffffe
     ea4:	ff078793          	addi	a5,a5,-16 # ffffdff0 <__stack_top+0xffff5ff4>
     ea8:	008787b3          	add	a5,a5,s0
     eac:	0dc7a783          	lw	a5,220(a5)
     eb0:	fec42703          	lw	a4,-20(s0)
     eb4:	00f707b3          	add	a5,a4,a5
     eb8:	fef42623          	sw	a5,-20(s0)
     ebc:	fffff7b7          	lui	a5,0xfffff
     ec0:	ff078793          	addi	a5,a5,-16 # ffffeff0 <__stack_top+0xffff6ff4>
     ec4:	008787b3          	add	a5,a5,s0
     ec8:	5447a783          	lw	a5,1348(a5)
     ecc:	d4f42023          	sw	a5,-704(s0)
     ed0:	fffff7b7          	lui	a5,0xfffff
     ed4:	ff078793          	addi	a5,a5,-16 # ffffeff0 <__stack_top+0xffff6ff4>
     ed8:	008787b3          	add	a5,a5,s0
     edc:	2587a783          	lw	a5,600(a5)
     ee0:	d4f42223          	sw	a5,-700(s0)
     ee4:	ffffe7b7          	lui	a5,0xffffe
     ee8:	ff078793          	addi	a5,a5,-16 # ffffdff0 <__stack_top+0xffff5ff4>
     eec:	008787b3          	add	a5,a5,s0
     ef0:	0b47a783          	lw	a5,180(a5)
     ef4:	d4f42423          	sw	a5,-696(s0)
     ef8:	fe842783          	lw	a5,-24(s0)
     efc:	d4f42623          	sw	a5,-692(s0)
     f00:	fe042223          	sw	zero,-28(s0)
     f04:	0640006f          	j	f68 <main+0xf24>
     f08:	fe042023          	sw	zero,-32(s0)
     f0c:	0440006f          	j	f50 <main+0xf0c>
     f10:	fffff7b7          	lui	a5,0xfffff
     f14:	ff078793          	addi	a5,a5,-16 # ffffeff0 <__stack_top+0xffff6ff4>
     f18:	008786b3          	add	a3,a5,s0
     f1c:	fe442703          	lw	a4,-28(s0)
     f20:	00070793          	mv	a5,a4
     f24:	00279793          	slli	a5,a5,0x2
     f28:	00e787b3          	add	a5,a5,a4
     f2c:	00179793          	slli	a5,a5,0x1
     f30:	fe042703          	lw	a4,-32(s0)
     f34:	00e787b3          	add	a5,a5,a4
     f38:	00279793          	slli	a5,a5,0x2
     f3c:	00f687b3          	add	a5,a3,a5
     f40:	dc07ae23          	sw	zero,-548(a5)
     f44:	fe042783          	lw	a5,-32(s0)
     f48:	00178793          	addi	a5,a5,1
     f4c:	fef42023          	sw	a5,-32(s0)
     f50:	fe042703          	lw	a4,-32(s0)
     f54:	00900793          	li	a5,9
     f58:	fae7dce3          	bge	a5,a4,f10 <main+0xecc>
     f5c:	fe442783          	lw	a5,-28(s0)
     f60:	00178793          	addi	a5,a5,1
     f64:	fef42223          	sw	a5,-28(s0)
     f68:	fe442703          	lw	a4,-28(s0)
     f6c:	00900793          	li	a5,9
     f70:	f8e7dce3          	bge	a5,a4,f08 <main+0xec4>
     f74:	fe042223          	sw	zero,-28(s0)
     f78:	0a80006f          	j	1020 <main+0xfdc>
     f7c:	fe442703          	lw	a4,-28(s0)
     f80:	00070793          	mv	a5,a4
     f84:	00179793          	slli	a5,a5,0x1
     f88:	00e787b3          	add	a5,a5,a4
     f8c:	00279793          	slli	a5,a5,0x2
     f90:	00e787b3          	add	a5,a5,a4
     f94:	00778793          	addi	a5,a5,7
     f98:	01a00593          	li	a1,26
     f9c:	00078513          	mv	a0,a5
     fa0:	284030ef          	jal	4224 <__modsi3>
     fa4:	00050793          	mv	a5,a0
     fa8:	00078693          	mv	a3,a5
     fac:	ffffe7b7          	lui	a5,0xffffe
     fb0:	ff078793          	addi	a5,a5,-16 # ffffdff0 <__stack_top+0xffff5ff4>
     fb4:	00878733          	add	a4,a5,s0
     fb8:	fe442783          	lw	a5,-28(s0)
     fbc:	00279793          	slli	a5,a5,0x2
     fc0:	00f707b3          	add	a5,a4,a5
     fc4:	fed7ac23          	sw	a3,-8(a5)
     fc8:	fe442703          	lw	a4,-28(s0)
     fcc:	00070793          	mv	a5,a4
     fd0:	00179793          	slli	a5,a5,0x1
     fd4:	00e787b3          	add	a5,a5,a4
     fd8:	00279793          	slli	a5,a5,0x2
     fdc:	40e787b3          	sub	a5,a5,a4
     fe0:	00578793          	addi	a5,a5,5
     fe4:	01a00593          	li	a1,26
     fe8:	00078513          	mv	a0,a5
     fec:	238030ef          	jal	4224 <__modsi3>
     ff0:	00050793          	mv	a5,a0
     ff4:	00078693          	mv	a3,a5
     ff8:	ffffe7b7          	lui	a5,0xffffe
     ffc:	ff078793          	addi	a5,a5,-16 # ffffdff0 <__stack_top+0xffff5ff4>
    1000:	00878733          	add	a4,a5,s0
    1004:	fe442783          	lw	a5,-28(s0)
    1008:	00279793          	slli	a5,a5,0x2
    100c:	00f707b3          	add	a5,a4,a5
    1010:	fcd7aa23          	sw	a3,-44(a5)
    1014:	fe442783          	lw	a5,-28(s0)
    1018:	00178793          	addi	a5,a5,1
    101c:	fef42223          	sw	a5,-28(s0)
    1020:	fe442703          	lw	a4,-28(s0)
    1024:	00800793          	li	a5,8
    1028:	f4e7dae3          	bge	a5,a4,f7c <main+0xf38>
    102c:	fe042223          	sw	zero,-28(s0)
    1030:	05c0006f          	j	108c <main+0x1048>
    1034:	fffff7b7          	lui	a5,0xfffff
    1038:	ff078793          	addi	a5,a5,-16 # ffffeff0 <__stack_top+0xffff6ff4>
    103c:	008786b3          	add	a3,a5,s0
    1040:	fe442703          	lw	a4,-28(s0)
    1044:	00070793          	mv	a5,a4
    1048:	00279793          	slli	a5,a5,0x2
    104c:	00e787b3          	add	a5,a5,a4
    1050:	00379793          	slli	a5,a5,0x3
    1054:	00f687b3          	add	a5,a3,a5
    1058:	fe442703          	lw	a4,-28(s0)
    105c:	dce7ae23          	sw	a4,-548(a5)
    1060:	fffff7b7          	lui	a5,0xfffff
    1064:	ff078793          	addi	a5,a5,-16 # ffffeff0 <__stack_top+0xffff6ff4>
    1068:	00878733          	add	a4,a5,s0
    106c:	fe442783          	lw	a5,-28(s0)
    1070:	00279793          	slli	a5,a5,0x2
    1074:	00f707b3          	add	a5,a4,a5
    1078:	fe442703          	lw	a4,-28(s0)
    107c:	dce7ae23          	sw	a4,-548(a5)
    1080:	fe442783          	lw	a5,-28(s0)
    1084:	00178793          	addi	a5,a5,1
    1088:	fef42223          	sw	a5,-28(s0)
    108c:	fe442703          	lw	a4,-28(s0)
    1090:	00900793          	li	a5,9
    1094:	fae7d0e3          	bge	a5,a4,1034 <main+0xff0>
    1098:	00100793          	li	a5,1
    109c:	fef42223          	sw	a5,-28(s0)
    10a0:	28c0006f          	j	132c <main+0x12e8>
    10a4:	00100793          	li	a5,1
    10a8:	fef42023          	sw	a5,-32(s0)
    10ac:	2680006f          	j	1314 <main+0x12d0>
    10b0:	fe442783          	lw	a5,-28(s0)
    10b4:	fff78793          	addi	a5,a5,-1
    10b8:	ffffe737          	lui	a4,0xffffe
    10bc:	ff070713          	addi	a4,a4,-16 # ffffdff0 <__stack_top+0xffff5ff4>
    10c0:	00870733          	add	a4,a4,s0
    10c4:	00279793          	slli	a5,a5,0x2
    10c8:	00f707b3          	add	a5,a4,a5
    10cc:	ff87a703          	lw	a4,-8(a5)
    10d0:	fe042783          	lw	a5,-32(s0)
    10d4:	fff78793          	addi	a5,a5,-1
    10d8:	ffffe6b7          	lui	a3,0xffffe
    10dc:	ff068693          	addi	a3,a3,-16 # ffffdff0 <__stack_top+0xffff5ff4>
    10e0:	008686b3          	add	a3,a3,s0
    10e4:	00279793          	slli	a5,a5,0x2
    10e8:	00f687b3          	add	a5,a3,a5
    10ec:	fd47a783          	lw	a5,-44(a5)
    10f0:	06f71c63          	bne	a4,a5,1168 <main+0x1124>
    10f4:	fe442783          	lw	a5,-28(s0)
    10f8:	fff78713          	addi	a4,a5,-1
    10fc:	fe042783          	lw	a5,-32(s0)
    1100:	fff78613          	addi	a2,a5,-1
    1104:	fffff7b7          	lui	a5,0xfffff
    1108:	ff078793          	addi	a5,a5,-16 # ffffeff0 <__stack_top+0xffff6ff4>
    110c:	008786b3          	add	a3,a5,s0
    1110:	00070793          	mv	a5,a4
    1114:	00279793          	slli	a5,a5,0x2
    1118:	00e787b3          	add	a5,a5,a4
    111c:	00179793          	slli	a5,a5,0x1
    1120:	00c787b3          	add	a5,a5,a2
    1124:	00279793          	slli	a5,a5,0x2
    1128:	00f687b3          	add	a5,a3,a5
    112c:	ddc7a683          	lw	a3,-548(a5)
    1130:	fffff7b7          	lui	a5,0xfffff
    1134:	ff078793          	addi	a5,a5,-16 # ffffeff0 <__stack_top+0xffff6ff4>
    1138:	00878633          	add	a2,a5,s0
    113c:	fe442703          	lw	a4,-28(s0)
    1140:	00070793          	mv	a5,a4
    1144:	00279793          	slli	a5,a5,0x2
    1148:	00e787b3          	add	a5,a5,a4
    114c:	00179793          	slli	a5,a5,0x1
    1150:	fe042703          	lw	a4,-32(s0)
    1154:	00e787b3          	add	a5,a5,a4
    1158:	00279793          	slli	a5,a5,0x2
    115c:	00f607b3          	add	a5,a2,a5
    1160:	dcd7ae23          	sw	a3,-548(a5)
    1164:	1300006f          	j	1294 <main+0x1250>
    1168:	fe042783          	lw	a5,-32(s0)
    116c:	fff78613          	addi	a2,a5,-1
    1170:	fffff7b7          	lui	a5,0xfffff
    1174:	ff078793          	addi	a5,a5,-16 # ffffeff0 <__stack_top+0xffff6ff4>
    1178:	008786b3          	add	a3,a5,s0
    117c:	fe442703          	lw	a4,-28(s0)
    1180:	00070793          	mv	a5,a4
    1184:	00279793          	slli	a5,a5,0x2
    1188:	00e787b3          	add	a5,a5,a4
    118c:	00179793          	slli	a5,a5,0x1
    1190:	00c787b3          	add	a5,a5,a2
    1194:	00279793          	slli	a5,a5,0x2
    1198:	00f687b3          	add	a5,a3,a5
    119c:	ddc7a783          	lw	a5,-548(a5)
    11a0:	00178793          	addi	a5,a5,1
    11a4:	e8f42e23          	sw	a5,-356(s0)
    11a8:	fe442783          	lw	a5,-28(s0)
    11ac:	fff78713          	addi	a4,a5,-1
    11b0:	fffff7b7          	lui	a5,0xfffff
    11b4:	ff078793          	addi	a5,a5,-16 # ffffeff0 <__stack_top+0xffff6ff4>
    11b8:	008786b3          	add	a3,a5,s0
    11bc:	00070793          	mv	a5,a4
    11c0:	00279793          	slli	a5,a5,0x2
    11c4:	00e787b3          	add	a5,a5,a4
    11c8:	00179793          	slli	a5,a5,0x1
    11cc:	fe042703          	lw	a4,-32(s0)
    11d0:	00e787b3          	add	a5,a5,a4
    11d4:	00279793          	slli	a5,a5,0x2
    11d8:	00f687b3          	add	a5,a3,a5
    11dc:	ddc7a783          	lw	a5,-548(a5)
    11e0:	00178793          	addi	a5,a5,1
    11e4:	e8f42c23          	sw	a5,-360(s0)
    11e8:	fe442783          	lw	a5,-28(s0)
    11ec:	fff78713          	addi	a4,a5,-1
    11f0:	fe042783          	lw	a5,-32(s0)
    11f4:	fff78613          	addi	a2,a5,-1
    11f8:	fffff7b7          	lui	a5,0xfffff
    11fc:	ff078793          	addi	a5,a5,-16 # ffffeff0 <__stack_top+0xffff6ff4>
    1200:	008786b3          	add	a3,a5,s0
    1204:	00070793          	mv	a5,a4
    1208:	00279793          	slli	a5,a5,0x2
    120c:	00e787b3          	add	a5,a5,a4
    1210:	00179793          	slli	a5,a5,0x1
    1214:	00c787b3          	add	a5,a5,a2
    1218:	00279793          	slli	a5,a5,0x2
    121c:	00f687b3          	add	a5,a3,a5
    1220:	ddc7a783          	lw	a5,-548(a5)
    1224:	00178793          	addi	a5,a5,1
    1228:	e8f42a23          	sw	a5,-364(s0)
    122c:	e9c42783          	lw	a5,-356(s0)
    1230:	fcf42423          	sw	a5,-56(s0)
    1234:	e9842703          	lw	a4,-360(s0)
    1238:	fc842783          	lw	a5,-56(s0)
    123c:	00f75663          	bge	a4,a5,1248 <main+0x1204>
    1240:	e9842783          	lw	a5,-360(s0)
    1244:	fcf42423          	sw	a5,-56(s0)
    1248:	e9442703          	lw	a4,-364(s0)
    124c:	fc842783          	lw	a5,-56(s0)
    1250:	00f75663          	bge	a4,a5,125c <main+0x1218>
    1254:	e9442783          	lw	a5,-364(s0)
    1258:	fcf42423          	sw	a5,-56(s0)
    125c:	fffff7b7          	lui	a5,0xfffff
    1260:	ff078793          	addi	a5,a5,-16 # ffffeff0 <__stack_top+0xffff6ff4>
    1264:	008786b3          	add	a3,a5,s0
    1268:	fe442703          	lw	a4,-28(s0)
    126c:	00070793          	mv	a5,a4
    1270:	00279793          	slli	a5,a5,0x2
    1274:	00e787b3          	add	a5,a5,a4
    1278:	00179793          	slli	a5,a5,0x1
    127c:	fe042703          	lw	a4,-32(s0)
    1280:	00e787b3          	add	a5,a5,a4
    1284:	00279793          	slli	a5,a5,0x2
    1288:	00f687b3          	add	a5,a3,a5
    128c:	fc842703          	lw	a4,-56(s0)
    1290:	dce7ae23          	sw	a4,-548(a5)
    1294:	ffffe7b7          	lui	a5,0xffffe
    1298:	ff078793          	addi	a5,a5,-16 # ffffdff0 <__stack_top+0xffff5ff4>
    129c:	008787b3          	add	a5,a5,s0
    12a0:	0b87a783          	lw	a5,184(a5)
    12a4:	00178713          	addi	a4,a5,1
    12a8:	ffffe7b7          	lui	a5,0xffffe
    12ac:	ff078793          	addi	a5,a5,-16 # ffffdff0 <__stack_top+0xffff5ff4>
    12b0:	008787b3          	add	a5,a5,s0
    12b4:	0ae7ac23          	sw	a4,184(a5)
    12b8:	fffff7b7          	lui	a5,0xfffff
    12bc:	ff078793          	addi	a5,a5,-16 # ffffeff0 <__stack_top+0xffff6ff4>
    12c0:	008786b3          	add	a3,a5,s0
    12c4:	fe442703          	lw	a4,-28(s0)
    12c8:	00070793          	mv	a5,a4
    12cc:	00279793          	slli	a5,a5,0x2
    12d0:	00e787b3          	add	a5,a5,a4
    12d4:	00179793          	slli	a5,a5,0x1
    12d8:	fe042703          	lw	a4,-32(s0)
    12dc:	00e787b3          	add	a5,a5,a4
    12e0:	00279793          	slli	a5,a5,0x2
    12e4:	00f687b3          	add	a5,a3,a5
    12e8:	ddc7a703          	lw	a4,-548(a5)
    12ec:	fe842783          	lw	a5,-24(s0)
    12f0:	00f707b3          	add	a5,a4,a5
    12f4:	16f00593          	li	a1,367
    12f8:	00078513          	mv	a0,a5
    12fc:	729020ef          	jal	4224 <__modsi3>
    1300:	00050793          	mv	a5,a0
    1304:	fef42423          	sw	a5,-24(s0)
    1308:	fe042783          	lw	a5,-32(s0)
    130c:	00178793          	addi	a5,a5,1
    1310:	fef42023          	sw	a5,-32(s0)
    1314:	fe042703          	lw	a4,-32(s0)
    1318:	00900793          	li	a5,9
    131c:	d8e7dae3          	bge	a5,a4,10b0 <main+0x106c>
    1320:	fe442783          	lw	a5,-28(s0)
    1324:	00178793          	addi	a5,a5,1
    1328:	fef42223          	sw	a5,-28(s0)
    132c:	fe442703          	lw	a4,-28(s0)
    1330:	00900793          	li	a5,9
    1334:	d6e7d8e3          	bge	a5,a4,10a4 <main+0x1060>
    1338:	fffff7b7          	lui	a5,0xfffff
    133c:	ff078793          	addi	a5,a5,-16 # ffffeff0 <__stack_top+0xffff6ff4>
    1340:	008787b3          	add	a5,a5,s0
    1344:	f687a703          	lw	a4,-152(a5)
    1348:	ffffe7b7          	lui	a5,0xffffe
    134c:	ff078793          	addi	a5,a5,-16 # ffffdff0 <__stack_top+0xffff5ff4>
    1350:	008787b3          	add	a5,a5,s0
    1354:	0ee7a023          	sw	a4,224(a5)
    1358:	ffffe7b7          	lui	a5,0xffffe
    135c:	ff078793          	addi	a5,a5,-16 # ffffdff0 <__stack_top+0xffff5ff4>
    1360:	008787b3          	add	a5,a5,s0
    1364:	0e07a783          	lw	a5,224(a5)
    1368:	00179793          	slli	a5,a5,0x1
    136c:	fec42703          	lw	a4,-20(s0)
    1370:	00f707b3          	add	a5,a4,a5
    1374:	fef42623          	sw	a5,-20(s0)
    1378:	fffff7b7          	lui	a5,0xfffff
    137c:	ff078793          	addi	a5,a5,-16 # ffffeff0 <__stack_top+0xffff6ff4>
    1380:	008787b3          	add	a5,a5,s0
    1384:	f687a783          	lw	a5,-152(a5)
    1388:	d4f42823          	sw	a5,-688(s0)
    138c:	fffff7b7          	lui	a5,0xfffff
    1390:	ff078793          	addi	a5,a5,-16 # ffffeff0 <__stack_top+0xffff6ff4>
    1394:	008787b3          	add	a5,a5,s0
    1398:	eb87a783          	lw	a5,-328(a5)
    139c:	d4f42a23          	sw	a5,-684(s0)
    13a0:	ffffe7b7          	lui	a5,0xffffe
    13a4:	ff078793          	addi	a5,a5,-16 # ffffdff0 <__stack_top+0xffff5ff4>
    13a8:	008787b3          	add	a5,a5,s0
    13ac:	0b87a783          	lw	a5,184(a5)
    13b0:	d4f42c23          	sw	a5,-680(s0)
    13b4:	fe842783          	lw	a5,-24(s0)
    13b8:	d4f42e23          	sw	a5,-676(s0)
    13bc:	fe042223          	sw	zero,-28(s0)
    13c0:	0740006f          	j	1434 <main+0x13f0>
    13c4:	fe442703          	lw	a4,-28(s0)
    13c8:	00070793          	mv	a5,a4
    13cc:	00179793          	slli	a5,a5,0x1
    13d0:	00e787b3          	add	a5,a5,a4
    13d4:	00379793          	slli	a5,a5,0x3
    13d8:	40e787b3          	sub	a5,a5,a4
    13dc:	02978713          	addi	a4,a5,41
    13e0:	fe442783          	lw	a5,-28(s0)
    13e4:	00778793          	addi	a5,a5,7
    13e8:	00078593          	mv	a1,a5
    13ec:	00070513          	mv	a0,a4
    13f0:	58d020ef          	jal	417c <__mulsi3>
    13f4:	00050793          	mv	a5,a0
    13f8:	07f00593          	li	a1,127
    13fc:	00078513          	mv	a0,a5
    1400:	625020ef          	jal	4224 <__modsi3>
    1404:	00050793          	mv	a5,a0
    1408:	00078693          	mv	a3,a5
    140c:	fffff7b7          	lui	a5,0xfffff
    1410:	ff078793          	addi	a5,a5,-16 # ffffeff0 <__stack_top+0xffff6ff4>
    1414:	00878733          	add	a4,a5,s0
    1418:	fe442783          	lw	a5,-28(s0)
    141c:	00279793          	slli	a5,a5,0x2
    1420:	00f707b3          	add	a5,a4,a5
    1424:	9cd7aa23          	sw	a3,-1580(a5)
    1428:	fe442783          	lw	a5,-28(s0)
    142c:	00178793          	addi	a5,a5,1
    1430:	fef42223          	sw	a5,-28(s0)
    1434:	fe442703          	lw	a4,-28(s0)
    1438:	01d00793          	li	a5,29
    143c:	f8e7d4e3          	bge	a5,a4,13c4 <main+0x1380>
    1440:	01e00793          	li	a5,30
    1444:	f2f42023          	sw	a5,-224(s0)
    1448:	f2042783          	lw	a5,-224(s0)
    144c:	01f7d713          	srli	a4,a5,0x1f
    1450:	00f707b3          	add	a5,a4,a5
    1454:	4017d793          	srai	a5,a5,0x1
    1458:	fff78793          	addi	a5,a5,-1
    145c:	fef42223          	sw	a5,-28(s0)
    1460:	2000006f          	j	1660 <main+0x161c>
    1464:	fe442783          	lw	a5,-28(s0)
    1468:	fcf42223          	sw	a5,-60(s0)
    146c:	fe442783          	lw	a5,-28(s0)
    1470:	00179793          	slli	a5,a5,0x1
    1474:	00178793          	addi	a5,a5,1
    1478:	fcf42023          	sw	a5,-64(s0)
    147c:	fe442783          	lw	a5,-28(s0)
    1480:	00178793          	addi	a5,a5,1
    1484:	00179793          	slli	a5,a5,0x1
    1488:	faf42e23          	sw	a5,-68(s0)
    148c:	00100793          	li	a5,1
    1490:	faf42c23          	sw	a5,-72(s0)
    1494:	1b80006f          	j	164c <main+0x1608>
    1498:	fa042c23          	sw	zero,-72(s0)
    149c:	fc042703          	lw	a4,-64(s0)
    14a0:	f2042783          	lw	a5,-224(s0)
    14a4:	04f75463          	bge	a4,a5,14ec <main+0x14a8>
    14a8:	fffff7b7          	lui	a5,0xfffff
    14ac:	ff078793          	addi	a5,a5,-16 # ffffeff0 <__stack_top+0xffff6ff4>
    14b0:	00878733          	add	a4,a5,s0
    14b4:	fc042783          	lw	a5,-64(s0)
    14b8:	00279793          	slli	a5,a5,0x2
    14bc:	00f707b3          	add	a5,a4,a5
    14c0:	9d47a703          	lw	a4,-1580(a5)
    14c4:	fffff7b7          	lui	a5,0xfffff
    14c8:	ff078793          	addi	a5,a5,-16 # ffffeff0 <__stack_top+0xffff6ff4>
    14cc:	008786b3          	add	a3,a5,s0
    14d0:	fc442783          	lw	a5,-60(s0)
    14d4:	00279793          	slli	a5,a5,0x2
    14d8:	00f687b3          	add	a5,a3,a5
    14dc:	9d47a783          	lw	a5,-1580(a5)
    14e0:	00e7d663          	bge	a5,a4,14ec <main+0x14a8>
    14e4:	fc042783          	lw	a5,-64(s0)
    14e8:	fcf42223          	sw	a5,-60(s0)
    14ec:	fbc42703          	lw	a4,-68(s0)
    14f0:	f2042783          	lw	a5,-224(s0)
    14f4:	04f75463          	bge	a4,a5,153c <main+0x14f8>
    14f8:	fffff7b7          	lui	a5,0xfffff
    14fc:	ff078793          	addi	a5,a5,-16 # ffffeff0 <__stack_top+0xffff6ff4>
    1500:	00878733          	add	a4,a5,s0
    1504:	fbc42783          	lw	a5,-68(s0)
    1508:	00279793          	slli	a5,a5,0x2
    150c:	00f707b3          	add	a5,a4,a5
    1510:	9d47a703          	lw	a4,-1580(a5)
    1514:	fffff7b7          	lui	a5,0xfffff
    1518:	ff078793          	addi	a5,a5,-16 # ffffeff0 <__stack_top+0xffff6ff4>
    151c:	008786b3          	add	a3,a5,s0
    1520:	fc442783          	lw	a5,-60(s0)
    1524:	00279793          	slli	a5,a5,0x2
    1528:	00f687b3          	add	a5,a3,a5
    152c:	9d47a783          	lw	a5,-1580(a5)
    1530:	00e7d663          	bge	a5,a4,153c <main+0x14f8>
    1534:	fbc42783          	lw	a5,-68(s0)
    1538:	fcf42223          	sw	a5,-60(s0)
    153c:	fc442703          	lw	a4,-60(s0)
    1540:	fe442783          	lw	a5,-28(s0)
    1544:	10f70463          	beq	a4,a5,164c <main+0x1608>
    1548:	fffff7b7          	lui	a5,0xfffff
    154c:	ff078793          	addi	a5,a5,-16 # ffffeff0 <__stack_top+0xffff6ff4>
    1550:	00878733          	add	a4,a5,s0
    1554:	fe442783          	lw	a5,-28(s0)
    1558:	00279793          	slli	a5,a5,0x2
    155c:	00f707b3          	add	a5,a4,a5
    1560:	9d47a783          	lw	a5,-1580(a5)
    1564:	eaf42e23          	sw	a5,-324(s0)
    1568:	fffff7b7          	lui	a5,0xfffff
    156c:	ff078793          	addi	a5,a5,-16 # ffffeff0 <__stack_top+0xffff6ff4>
    1570:	00878733          	add	a4,a5,s0
    1574:	fc442783          	lw	a5,-60(s0)
    1578:	00279793          	slli	a5,a5,0x2
    157c:	00f707b3          	add	a5,a4,a5
    1580:	9d47a703          	lw	a4,-1580(a5)
    1584:	fffff7b7          	lui	a5,0xfffff
    1588:	ff078793          	addi	a5,a5,-16 # ffffeff0 <__stack_top+0xffff6ff4>
    158c:	008786b3          	add	a3,a5,s0
    1590:	fe442783          	lw	a5,-28(s0)
    1594:	00279793          	slli	a5,a5,0x2
    1598:	00f687b3          	add	a5,a3,a5
    159c:	9ce7aa23          	sw	a4,-1580(a5)
    15a0:	fffff7b7          	lui	a5,0xfffff
    15a4:	ff078793          	addi	a5,a5,-16 # ffffeff0 <__stack_top+0xffff6ff4>
    15a8:	00878733          	add	a4,a5,s0
    15ac:	fc442783          	lw	a5,-60(s0)
    15b0:	00279793          	slli	a5,a5,0x2
    15b4:	00f707b3          	add	a5,a4,a5
    15b8:	ebc42703          	lw	a4,-324(s0)
    15bc:	9ce7aa23          	sw	a4,-1580(a5)
    15c0:	fc442783          	lw	a5,-60(s0)
    15c4:	fef42223          	sw	a5,-28(s0)
    15c8:	fe442783          	lw	a5,-28(s0)
    15cc:	00179793          	slli	a5,a5,0x1
    15d0:	00178793          	addi	a5,a5,1
    15d4:	fcf42023          	sw	a5,-64(s0)
    15d8:	fe442783          	lw	a5,-28(s0)
    15dc:	00178793          	addi	a5,a5,1
    15e0:	00179793          	slli	a5,a5,0x1
    15e4:	faf42e23          	sw	a5,-68(s0)
    15e8:	00100793          	li	a5,1
    15ec:	faf42c23          	sw	a5,-72(s0)
    15f0:	ffffe7b7          	lui	a5,0xffffe
    15f4:	ff078793          	addi	a5,a5,-16 # ffffdff0 <__stack_top+0xffff5ff4>
    15f8:	008787b3          	add	a5,a5,s0
    15fc:	0bc7a783          	lw	a5,188(a5)
    1600:	00178713          	addi	a4,a5,1
    1604:	ffffe7b7          	lui	a5,0xffffe
    1608:	ff078793          	addi	a5,a5,-16 # ffffdff0 <__stack_top+0xffff5ff4>
    160c:	008787b3          	add	a5,a5,s0
    1610:	0ae7ae23          	sw	a4,188(a5)
    1614:	fffff7b7          	lui	a5,0xfffff
    1618:	ff078793          	addi	a5,a5,-16 # ffffeff0 <__stack_top+0xffff6ff4>
    161c:	00878733          	add	a4,a5,s0
    1620:	fe442783          	lw	a5,-28(s0)
    1624:	00279793          	slli	a5,a5,0x2
    1628:	00f707b3          	add	a5,a4,a5
    162c:	9d47a703          	lw	a4,-1580(a5)
    1630:	fe842783          	lw	a5,-24(s0)
    1634:	00f707b3          	add	a5,a4,a5
    1638:	16100593          	li	a1,353
    163c:	00078513          	mv	a0,a5
    1640:	3e5020ef          	jal	4224 <__modsi3>
    1644:	00050793          	mv	a5,a0
    1648:	fef42423          	sw	a5,-24(s0)
    164c:	fb842783          	lw	a5,-72(s0)
    1650:	e40794e3          	bnez	a5,1498 <main+0x1454>
    1654:	fe442783          	lw	a5,-28(s0)
    1658:	fff78793          	addi	a5,a5,-1
    165c:	fef42223          	sw	a5,-28(s0)
    1660:	fe442783          	lw	a5,-28(s0)
    1664:	e007d0e3          	bgez	a5,1464 <main+0x1420>
    1668:	f2042783          	lw	a5,-224(s0)
    166c:	fff78793          	addi	a5,a5,-1
    1670:	fef42223          	sw	a5,-28(s0)
    1674:	24c0006f          	j	18c0 <main+0x187c>
    1678:	fffff7b7          	lui	a5,0xfffff
    167c:	ff078793          	addi	a5,a5,-16 # ffffeff0 <__stack_top+0xffff6ff4>
    1680:	008787b3          	add	a5,a5,s0
    1684:	9d47a783          	lw	a5,-1580(a5)
    1688:	eaf42e23          	sw	a5,-324(s0)
    168c:	fffff7b7          	lui	a5,0xfffff
    1690:	ff078793          	addi	a5,a5,-16 # ffffeff0 <__stack_top+0xffff6ff4>
    1694:	00878733          	add	a4,a5,s0
    1698:	fe442783          	lw	a5,-28(s0)
    169c:	00279793          	slli	a5,a5,0x2
    16a0:	00f707b3          	add	a5,a4,a5
    16a4:	9d47a703          	lw	a4,-1580(a5)
    16a8:	fffff7b7          	lui	a5,0xfffff
    16ac:	ff078793          	addi	a5,a5,-16 # ffffeff0 <__stack_top+0xffff6ff4>
    16b0:	008787b3          	add	a5,a5,s0
    16b4:	9ce7aa23          	sw	a4,-1580(a5)
    16b8:	fffff7b7          	lui	a5,0xfffff
    16bc:	ff078793          	addi	a5,a5,-16 # ffffeff0 <__stack_top+0xffff6ff4>
    16c0:	00878733          	add	a4,a5,s0
    16c4:	fe442783          	lw	a5,-28(s0)
    16c8:	00279793          	slli	a5,a5,0x2
    16cc:	00f707b3          	add	a5,a4,a5
    16d0:	ebc42703          	lw	a4,-324(s0)
    16d4:	9ce7aa23          	sw	a4,-1580(a5)
    16d8:	fa042a23          	sw	zero,-76(s0)
    16dc:	fe442783          	lw	a5,-28(s0)
    16e0:	eaf42423          	sw	a5,-344(s0)
    16e4:	00100793          	li	a5,1
    16e8:	faf42823          	sw	a5,-80(s0)
    16ec:	1c00006f          	j	18ac <main+0x1868>
    16f0:	fa042823          	sw	zero,-80(s0)
    16f4:	fb442783          	lw	a5,-76(s0)
    16f8:	faf42623          	sw	a5,-84(s0)
    16fc:	fb442783          	lw	a5,-76(s0)
    1700:	00179793          	slli	a5,a5,0x1
    1704:	00178793          	addi	a5,a5,1
    1708:	eaf42223          	sw	a5,-348(s0)
    170c:	fb442783          	lw	a5,-76(s0)
    1710:	00178793          	addi	a5,a5,1
    1714:	00179793          	slli	a5,a5,0x1
    1718:	eaf42023          	sw	a5,-352(s0)
    171c:	ea442703          	lw	a4,-348(s0)
    1720:	ea842783          	lw	a5,-344(s0)
    1724:	04f75463          	bge	a4,a5,176c <main+0x1728>
    1728:	fffff7b7          	lui	a5,0xfffff
    172c:	ff078793          	addi	a5,a5,-16 # ffffeff0 <__stack_top+0xffff6ff4>
    1730:	00878733          	add	a4,a5,s0
    1734:	ea442783          	lw	a5,-348(s0)
    1738:	00279793          	slli	a5,a5,0x2
    173c:	00f707b3          	add	a5,a4,a5
    1740:	9d47a703          	lw	a4,-1580(a5)
    1744:	fffff7b7          	lui	a5,0xfffff
    1748:	ff078793          	addi	a5,a5,-16 # ffffeff0 <__stack_top+0xffff6ff4>
    174c:	008786b3          	add	a3,a5,s0
    1750:	fac42783          	lw	a5,-84(s0)
    1754:	00279793          	slli	a5,a5,0x2
    1758:	00f687b3          	add	a5,a3,a5
    175c:	9d47a783          	lw	a5,-1580(a5)
    1760:	00e7d663          	bge	a5,a4,176c <main+0x1728>
    1764:	ea442783          	lw	a5,-348(s0)
    1768:	faf42623          	sw	a5,-84(s0)
    176c:	ea042703          	lw	a4,-352(s0)
    1770:	ea842783          	lw	a5,-344(s0)
    1774:	04f75463          	bge	a4,a5,17bc <main+0x1778>
    1778:	fffff7b7          	lui	a5,0xfffff
    177c:	ff078793          	addi	a5,a5,-16 # ffffeff0 <__stack_top+0xffff6ff4>
    1780:	00878733          	add	a4,a5,s0
    1784:	ea042783          	lw	a5,-352(s0)
    1788:	00279793          	slli	a5,a5,0x2
    178c:	00f707b3          	add	a5,a4,a5
    1790:	9d47a703          	lw	a4,-1580(a5)
    1794:	fffff7b7          	lui	a5,0xfffff
    1798:	ff078793          	addi	a5,a5,-16 # ffffeff0 <__stack_top+0xffff6ff4>
    179c:	008786b3          	add	a3,a5,s0
    17a0:	fac42783          	lw	a5,-84(s0)
    17a4:	00279793          	slli	a5,a5,0x2
    17a8:	00f687b3          	add	a5,a3,a5
    17ac:	9d47a783          	lw	a5,-1580(a5)
    17b0:	00e7d663          	bge	a5,a4,17bc <main+0x1778>
    17b4:	ea042783          	lw	a5,-352(s0)
    17b8:	faf42623          	sw	a5,-84(s0)
    17bc:	fac42703          	lw	a4,-84(s0)
    17c0:	fb442783          	lw	a5,-76(s0)
    17c4:	0ef70463          	beq	a4,a5,18ac <main+0x1868>
    17c8:	fffff7b7          	lui	a5,0xfffff
    17cc:	ff078793          	addi	a5,a5,-16 # ffffeff0 <__stack_top+0xffff6ff4>
    17d0:	00878733          	add	a4,a5,s0
    17d4:	fb442783          	lw	a5,-76(s0)
    17d8:	00279793          	slli	a5,a5,0x2
    17dc:	00f707b3          	add	a5,a4,a5
    17e0:	9d47a783          	lw	a5,-1580(a5)
    17e4:	eaf42e23          	sw	a5,-324(s0)
    17e8:	fffff7b7          	lui	a5,0xfffff
    17ec:	ff078793          	addi	a5,a5,-16 # ffffeff0 <__stack_top+0xffff6ff4>
    17f0:	00878733          	add	a4,a5,s0
    17f4:	fac42783          	lw	a5,-84(s0)
    17f8:	00279793          	slli	a5,a5,0x2
    17fc:	00f707b3          	add	a5,a4,a5
    1800:	9d47a703          	lw	a4,-1580(a5)
    1804:	fffff7b7          	lui	a5,0xfffff
    1808:	ff078793          	addi	a5,a5,-16 # ffffeff0 <__stack_top+0xffff6ff4>
    180c:	008786b3          	add	a3,a5,s0
    1810:	fb442783          	lw	a5,-76(s0)
    1814:	00279793          	slli	a5,a5,0x2
    1818:	00f687b3          	add	a5,a3,a5
    181c:	9ce7aa23          	sw	a4,-1580(a5)
    1820:	fffff7b7          	lui	a5,0xfffff
    1824:	ff078793          	addi	a5,a5,-16 # ffffeff0 <__stack_top+0xffff6ff4>
    1828:	00878733          	add	a4,a5,s0
    182c:	fac42783          	lw	a5,-84(s0)
    1830:	00279793          	slli	a5,a5,0x2
    1834:	00f707b3          	add	a5,a4,a5
    1838:	ebc42703          	lw	a4,-324(s0)
    183c:	9ce7aa23          	sw	a4,-1580(a5)
    1840:	fac42783          	lw	a5,-84(s0)
    1844:	faf42a23          	sw	a5,-76(s0)
    1848:	00100793          	li	a5,1
    184c:	faf42823          	sw	a5,-80(s0)
    1850:	ffffe7b7          	lui	a5,0xffffe
    1854:	ff078793          	addi	a5,a5,-16 # ffffdff0 <__stack_top+0xffff5ff4>
    1858:	008787b3          	add	a5,a5,s0
    185c:	0bc7a783          	lw	a5,188(a5)
    1860:	00178713          	addi	a4,a5,1
    1864:	ffffe7b7          	lui	a5,0xffffe
    1868:	ff078793          	addi	a5,a5,-16 # ffffdff0 <__stack_top+0xffff5ff4>
    186c:	008787b3          	add	a5,a5,s0
    1870:	0ae7ae23          	sw	a4,188(a5)
    1874:	fffff7b7          	lui	a5,0xfffff
    1878:	ff078793          	addi	a5,a5,-16 # ffffeff0 <__stack_top+0xffff6ff4>
    187c:	00878733          	add	a4,a5,s0
    1880:	fb442783          	lw	a5,-76(s0)
    1884:	00279793          	slli	a5,a5,0x2
    1888:	00f707b3          	add	a5,a4,a5
    188c:	9d47a703          	lw	a4,-1580(a5)
    1890:	fe842783          	lw	a5,-24(s0)
    1894:	00f707b3          	add	a5,a4,a5
    1898:	15d00593          	li	a1,349
    189c:	00078513          	mv	a0,a5
    18a0:	185020ef          	jal	4224 <__modsi3>
    18a4:	00050793          	mv	a5,a0
    18a8:	fef42423          	sw	a5,-24(s0)
    18ac:	fb042783          	lw	a5,-80(s0)
    18b0:	e40790e3          	bnez	a5,16f0 <main+0x16ac>
    18b4:	fe442783          	lw	a5,-28(s0)
    18b8:	fff78793          	addi	a5,a5,-1
    18bc:	fef42223          	sw	a5,-28(s0)
    18c0:	fe442783          	lw	a5,-28(s0)
    18c4:	daf04ae3          	bgtz	a5,1678 <main+0x1634>
    18c8:	fffff7b7          	lui	a5,0xfffff
    18cc:	ff078793          	addi	a5,a5,-16 # ffffeff0 <__stack_top+0xffff6ff4>
    18d0:	008787b3          	add	a5,a5,s0
    18d4:	9d47a703          	lw	a4,-1580(a5)
    18d8:	fffff7b7          	lui	a5,0xfffff
    18dc:	ff078793          	addi	a5,a5,-16 # ffffeff0 <__stack_top+0xffff6ff4>
    18e0:	008787b3          	add	a5,a5,s0
    18e4:	a487a783          	lw	a5,-1464(a5)
    18e8:	00f70733          	add	a4,a4,a5
    18ec:	ffffe7b7          	lui	a5,0xffffe
    18f0:	ff078793          	addi	a5,a5,-16 # ffffdff0 <__stack_top+0xffff5ff4>
    18f4:	008787b3          	add	a5,a5,s0
    18f8:	0ee7a223          	sw	a4,228(a5)
    18fc:	ffffe7b7          	lui	a5,0xffffe
    1900:	ff078793          	addi	a5,a5,-16 # ffffdff0 <__stack_top+0xffff5ff4>
    1904:	008787b3          	add	a5,a5,s0
    1908:	0e47a783          	lw	a5,228(a5)
    190c:	fec42703          	lw	a4,-20(s0)
    1910:	00f707b3          	add	a5,a4,a5
    1914:	fef42623          	sw	a5,-20(s0)
    1918:	fffff7b7          	lui	a5,0xfffff
    191c:	ff078793          	addi	a5,a5,-16 # ffffeff0 <__stack_top+0xffff6ff4>
    1920:	008787b3          	add	a5,a5,s0
    1924:	9d47a783          	lw	a5,-1580(a5)
    1928:	d6f42023          	sw	a5,-672(s0)
    192c:	fffff7b7          	lui	a5,0xfffff
    1930:	ff078793          	addi	a5,a5,-16 # ffffeff0 <__stack_top+0xffff6ff4>
    1934:	008787b3          	add	a5,a5,s0
    1938:	a487a783          	lw	a5,-1464(a5)
    193c:	d6f42223          	sw	a5,-668(s0)
    1940:	fffff7b7          	lui	a5,0xfffff
    1944:	ff078793          	addi	a5,a5,-16 # ffffeff0 <__stack_top+0xffff6ff4>
    1948:	008787b3          	add	a5,a5,s0
    194c:	a107a783          	lw	a5,-1520(a5)
    1950:	d6f42423          	sw	a5,-664(s0)
    1954:	ffffe7b7          	lui	a5,0xffffe
    1958:	ff078793          	addi	a5,a5,-16 # ffffdff0 <__stack_top+0xffff5ff4>
    195c:	008787b3          	add	a5,a5,s0
    1960:	0bc7a783          	lw	a5,188(a5)
    1964:	d6f42623          	sw	a5,-660(s0)
    1968:	fe842783          	lw	a5,-24(s0)
    196c:	d6f42823          	sw	a5,-656(s0)
    1970:	fe042223          	sw	zero,-28(s0)
    1974:	0640006f          	j	19d8 <main+0x1994>
    1978:	fffff7b7          	lui	a5,0xfffff
    197c:	ff078793          	addi	a5,a5,-16 # ffffeff0 <__stack_top+0xffff6ff4>
    1980:	00878733          	add	a4,a5,s0
    1984:	fe442783          	lw	a5,-28(s0)
    1988:	00279793          	slli	a5,a5,0x2
    198c:	00f707b3          	add	a5,a4,a5
    1990:	8007a423          	sw	zero,-2040(a5)
    1994:	ffffe7b7          	lui	a5,0xffffe
    1998:	ff078793          	addi	a5,a5,-16 # ffffdff0 <__stack_top+0xffff5ff4>
    199c:	00878733          	add	a4,a5,s0
    19a0:	fe442783          	lw	a5,-28(s0)
    19a4:	00279793          	slli	a5,a5,0x2
    19a8:	00f707b3          	add	a5,a4,a5
    19ac:	7c07a623          	sw	zero,1996(a5)
    19b0:	ffffe7b7          	lui	a5,0xffffe
    19b4:	ff078793          	addi	a5,a5,-16 # ffffdff0 <__stack_top+0xffff5ff4>
    19b8:	00878733          	add	a4,a5,s0
    19bc:	fe442783          	lw	a5,-28(s0)
    19c0:	00279793          	slli	a5,a5,0x2
    19c4:	00f707b3          	add	a5,a4,a5
    19c8:	7807a823          	sw	zero,1936(a5)
    19cc:	fe442783          	lw	a5,-28(s0)
    19d0:	00178793          	addi	a5,a5,1
    19d4:	fef42223          	sw	a5,-28(s0)
    19d8:	fe442703          	lw	a4,-28(s0)
    19dc:	00e00793          	li	a5,14
    19e0:	f8e7dce3          	bge	a5,a4,1978 <main+0x1934>
    19e4:	00700793          	li	a5,7
    19e8:	f0f42e23          	sw	a5,-228(s0)
    19ec:	00e00793          	li	a5,14
    19f0:	f0f42c23          	sw	a5,-232(s0)
    19f4:	ffffe7b7          	lui	a5,0xffffe
    19f8:	ff078793          	addi	a5,a5,-16 # ffffdff0 <__stack_top+0xffff5ff4>
    19fc:	008787b3          	add	a5,a5,s0
    1a00:	00100713          	li	a4,1
    1a04:	7ce7a623          	sw	a4,1996(a5)
    1a08:	ffffe7b7          	lui	a5,0xffffe
    1a0c:	ff078793          	addi	a5,a5,-16 # ffffdff0 <__stack_top+0xffff5ff4>
    1a10:	008787b3          	add	a5,a5,s0
    1a14:	00200713          	li	a4,2
    1a18:	7ce7a823          	sw	a4,2000(a5)
    1a1c:	ffffe7b7          	lui	a5,0xffffe
    1a20:	ff078793          	addi	a5,a5,-16 # ffffdff0 <__stack_top+0xffff5ff4>
    1a24:	008787b3          	add	a5,a5,s0
    1a28:	00100713          	li	a4,1
    1a2c:	7ce7aa23          	sw	a4,2004(a5)
    1a30:	ffffe7b7          	lui	a5,0xffffe
    1a34:	ff078793          	addi	a5,a5,-16 # ffffdff0 <__stack_top+0xffff5ff4>
    1a38:	008787b3          	add	a5,a5,s0
    1a3c:	00200713          	li	a4,2
    1a40:	7ce7ac23          	sw	a4,2008(a5)
    1a44:	ffffe7b7          	lui	a5,0xffffe
    1a48:	ff078793          	addi	a5,a5,-16 # ffffdff0 <__stack_top+0xffff5ff4>
    1a4c:	008787b3          	add	a5,a5,s0
    1a50:	00300713          	li	a4,3
    1a54:	7ce7ae23          	sw	a4,2012(a5)
    1a58:	ffffe7b7          	lui	a5,0xffffe
    1a5c:	ff078793          	addi	a5,a5,-16 # ffffdff0 <__stack_top+0xffff5ff4>
    1a60:	008787b3          	add	a5,a5,s0
    1a64:	00200713          	li	a4,2
    1a68:	7ee7a023          	sw	a4,2016(a5)
    1a6c:	ffffe7b7          	lui	a5,0xffffe
    1a70:	ff078793          	addi	a5,a5,-16 # ffffdff0 <__stack_top+0xffff5ff4>
    1a74:	008787b3          	add	a5,a5,s0
    1a78:	00100713          	li	a4,1
    1a7c:	7ee7a223          	sw	a4,2020(a5)
    1a80:	fffff7b7          	lui	a5,0xfffff
    1a84:	ff078793          	addi	a5,a5,-16 # ffffeff0 <__stack_top+0xffff6ff4>
    1a88:	008787b3          	add	a5,a5,s0
    1a8c:	00300713          	li	a4,3
    1a90:	80e7a423          	sw	a4,-2040(a5)
    1a94:	fffff7b7          	lui	a5,0xfffff
    1a98:	ff078793          	addi	a5,a5,-16 # ffffeff0 <__stack_top+0xffff6ff4>
    1a9c:	008787b3          	add	a5,a5,s0
    1aa0:	00100713          	li	a4,1
    1aa4:	80e7a623          	sw	a4,-2036(a5)
    1aa8:	fffff7b7          	lui	a5,0xfffff
    1aac:	ff078793          	addi	a5,a5,-16 # ffffeff0 <__stack_top+0xffff6ff4>
    1ab0:	008787b3          	add	a5,a5,s0
    1ab4:	00200713          	li	a4,2
    1ab8:	80e7a823          	sw	a4,-2032(a5)
    1abc:	fffff7b7          	lui	a5,0xfffff
    1ac0:	ff078793          	addi	a5,a5,-16 # ffffeff0 <__stack_top+0xffff6ff4>
    1ac4:	008787b3          	add	a5,a5,s0
    1ac8:	00100713          	li	a4,1
    1acc:	80e7aa23          	sw	a4,-2028(a5)
    1ad0:	fffff7b7          	lui	a5,0xfffff
    1ad4:	ff078793          	addi	a5,a5,-16 # ffffeff0 <__stack_top+0xffff6ff4>
    1ad8:	008787b3          	add	a5,a5,s0
    1adc:	00200713          	li	a4,2
    1ae0:	80e7ac23          	sw	a4,-2024(a5)
    1ae4:	fffff7b7          	lui	a5,0xfffff
    1ae8:	ff078793          	addi	a5,a5,-16 # ffffeff0 <__stack_top+0xffff6ff4>
    1aec:	008787b3          	add	a5,a5,s0
    1af0:	00300713          	li	a4,3
    1af4:	80e7ae23          	sw	a4,-2020(a5)
    1af8:	fffff7b7          	lui	a5,0xfffff
    1afc:	ff078793          	addi	a5,a5,-16 # ffffeff0 <__stack_top+0xffff6ff4>
    1b00:	008787b3          	add	a5,a5,s0
    1b04:	00200713          	li	a4,2
    1b08:	82e7a023          	sw	a4,-2016(a5)
    1b0c:	fffff7b7          	lui	a5,0xfffff
    1b10:	ff078793          	addi	a5,a5,-16 # ffffeff0 <__stack_top+0xffff6ff4>
    1b14:	008787b3          	add	a5,a5,s0
    1b18:	00100713          	li	a4,1
    1b1c:	82e7a223          	sw	a4,-2012(a5)
    1b20:	fffff7b7          	lui	a5,0xfffff
    1b24:	ff078793          	addi	a5,a5,-16 # ffffeff0 <__stack_top+0xffff6ff4>
    1b28:	008787b3          	add	a5,a5,s0
    1b2c:	00400713          	li	a4,4
    1b30:	82e7a423          	sw	a4,-2008(a5)
    1b34:	fffff7b7          	lui	a5,0xfffff
    1b38:	ff078793          	addi	a5,a5,-16 # ffffeff0 <__stack_top+0xffff6ff4>
    1b3c:	008787b3          	add	a5,a5,s0
    1b40:	00100713          	li	a4,1
    1b44:	82e7a623          	sw	a4,-2004(a5)
    1b48:	fffff7b7          	lui	a5,0xfffff
    1b4c:	ff078793          	addi	a5,a5,-16 # ffffeff0 <__stack_top+0xffff6ff4>
    1b50:	008787b3          	add	a5,a5,s0
    1b54:	00200713          	li	a4,2
    1b58:	82e7a823          	sw	a4,-2000(a5)
    1b5c:	fffff7b7          	lui	a5,0xfffff
    1b60:	ff078793          	addi	a5,a5,-16 # ffffeff0 <__stack_top+0xffff6ff4>
    1b64:	008787b3          	add	a5,a5,s0
    1b68:	00100713          	li	a4,1
    1b6c:	82e7aa23          	sw	a4,-1996(a5)
    1b70:	fffff7b7          	lui	a5,0xfffff
    1b74:	ff078793          	addi	a5,a5,-16 # ffffeff0 <__stack_top+0xffff6ff4>
    1b78:	008787b3          	add	a5,a5,s0
    1b7c:	00200713          	li	a4,2
    1b80:	82e7ac23          	sw	a4,-1992(a5)
    1b84:	fffff7b7          	lui	a5,0xfffff
    1b88:	ff078793          	addi	a5,a5,-16 # ffffeff0 <__stack_top+0xffff6ff4>
    1b8c:	008787b3          	add	a5,a5,s0
    1b90:	00300713          	li	a4,3
    1b94:	82e7ae23          	sw	a4,-1988(a5)
    1b98:	fa042423          	sw	zero,-88(s0)
    1b9c:	ffffe7b7          	lui	a5,0xffffe
    1ba0:	ff078793          	addi	a5,a5,-16 # ffffdff0 <__stack_top+0xffff5ff4>
    1ba4:	008787b3          	add	a5,a5,s0
    1ba8:	7807a823          	sw	zero,1936(a5)
    1bac:	00100793          	li	a5,1
    1bb0:	fef42223          	sw	a5,-28(s0)
    1bb4:	1340006f          	j	1ce8 <main+0x1ca4>
    1bb8:	ffffe7b7          	lui	a5,0xffffe
    1bbc:	ff078793          	addi	a5,a5,-16 # ffffdff0 <__stack_top+0xffff5ff4>
    1bc0:	00878733          	add	a4,a5,s0
    1bc4:	fe442783          	lw	a5,-28(s0)
    1bc8:	00279793          	slli	a5,a5,0x2
    1bcc:	00f707b3          	add	a5,a4,a5
    1bd0:	7cc7a703          	lw	a4,1996(a5)
    1bd4:	ffffe7b7          	lui	a5,0xffffe
    1bd8:	ff078793          	addi	a5,a5,-16 # ffffdff0 <__stack_top+0xffff5ff4>
    1bdc:	008786b3          	add	a3,a5,s0
    1be0:	fa842783          	lw	a5,-88(s0)
    1be4:	00279793          	slli	a5,a5,0x2
    1be8:	00f687b3          	add	a5,a3,a5
    1bec:	7cc7a783          	lw	a5,1996(a5)
    1bf0:	04f71063          	bne	a4,a5,1c30 <main+0x1bec>
    1bf4:	fa842783          	lw	a5,-88(s0)
    1bf8:	00178793          	addi	a5,a5,1
    1bfc:	faf42423          	sw	a5,-88(s0)
    1c00:	ffffe7b7          	lui	a5,0xffffe
    1c04:	ff078793          	addi	a5,a5,-16 # ffffdff0 <__stack_top+0xffff5ff4>
    1c08:	00878733          	add	a4,a5,s0
    1c0c:	fe442783          	lw	a5,-28(s0)
    1c10:	00279793          	slli	a5,a5,0x2
    1c14:	00f707b3          	add	a5,a4,a5
    1c18:	fa842703          	lw	a4,-88(s0)
    1c1c:	78e7a823          	sw	a4,1936(a5)
    1c20:	fe442783          	lw	a5,-28(s0)
    1c24:	00178793          	addi	a5,a5,1
    1c28:	fef42223          	sw	a5,-28(s0)
    1c2c:	05c0006f          	j	1c88 <main+0x1c44>
    1c30:	fa842783          	lw	a5,-88(s0)
    1c34:	02078663          	beqz	a5,1c60 <main+0x1c1c>
    1c38:	fa842783          	lw	a5,-88(s0)
    1c3c:	fff78793          	addi	a5,a5,-1
    1c40:	ffffe737          	lui	a4,0xffffe
    1c44:	ff070713          	addi	a4,a4,-16 # ffffdff0 <__stack_top+0xffff5ff4>
    1c48:	00870733          	add	a4,a4,s0
    1c4c:	00279793          	slli	a5,a5,0x2
    1c50:	00f707b3          	add	a5,a4,a5
    1c54:	7907a783          	lw	a5,1936(a5)
    1c58:	faf42423          	sw	a5,-88(s0)
    1c5c:	02c0006f          	j	1c88 <main+0x1c44>
    1c60:	ffffe7b7          	lui	a5,0xffffe
    1c64:	ff078793          	addi	a5,a5,-16 # ffffdff0 <__stack_top+0xffff5ff4>
    1c68:	00878733          	add	a4,a5,s0
    1c6c:	fe442783          	lw	a5,-28(s0)
    1c70:	00279793          	slli	a5,a5,0x2
    1c74:	00f707b3          	add	a5,a4,a5
    1c78:	7807a823          	sw	zero,1936(a5)
    1c7c:	fe442783          	lw	a5,-28(s0)
    1c80:	00178793          	addi	a5,a5,1
    1c84:	fef42223          	sw	a5,-28(s0)
    1c88:	ffffe7b7          	lui	a5,0xffffe
    1c8c:	ff078793          	addi	a5,a5,-16 # ffffdff0 <__stack_top+0xffff5ff4>
    1c90:	008787b3          	add	a5,a5,s0
    1c94:	0c07a783          	lw	a5,192(a5)
    1c98:	00178713          	addi	a4,a5,1
    1c9c:	ffffe7b7          	lui	a5,0xffffe
    1ca0:	ff078793          	addi	a5,a5,-16 # ffffdff0 <__stack_top+0xffff5ff4>
    1ca4:	008787b3          	add	a5,a5,s0
    1ca8:	0ce7a023          	sw	a4,192(a5)
    1cac:	fe442783          	lw	a5,-28(s0)
    1cb0:	fff78793          	addi	a5,a5,-1
    1cb4:	ffffe737          	lui	a4,0xffffe
    1cb8:	ff070713          	addi	a4,a4,-16 # ffffdff0 <__stack_top+0xffff5ff4>
    1cbc:	00870733          	add	a4,a4,s0
    1cc0:	00279793          	slli	a5,a5,0x2
    1cc4:	00f707b3          	add	a5,a4,a5
    1cc8:	7907a703          	lw	a4,1936(a5)
    1ccc:	fe842783          	lw	a5,-24(s0)
    1cd0:	00f707b3          	add	a5,a4,a5
    1cd4:	15100593          	li	a1,337
    1cd8:	00078513          	mv	a0,a5
    1cdc:	548020ef          	jal	4224 <__modsi3>
    1ce0:	00050793          	mv	a5,a0
    1ce4:	fef42423          	sw	a5,-24(s0)
    1ce8:	fe442703          	lw	a4,-28(s0)
    1cec:	f1c42783          	lw	a5,-228(s0)
    1cf0:	ecf744e3          	blt	a4,a5,1bb8 <main+0x1b74>
    1cf4:	fa042223          	sw	zero,-92(s0)
    1cf8:	fe042223          	sw	zero,-28(s0)
    1cfc:	fe042023          	sw	zero,-32(s0)
    1d00:	1680006f          	j	1e68 <main+0x1e24>
    1d04:	fffff7b7          	lui	a5,0xfffff
    1d08:	ff078793          	addi	a5,a5,-16 # ffffeff0 <__stack_top+0xffff6ff4>
    1d0c:	00878733          	add	a4,a5,s0
    1d10:	fe442783          	lw	a5,-28(s0)
    1d14:	00279793          	slli	a5,a5,0x2
    1d18:	00f707b3          	add	a5,a4,a5
    1d1c:	8087a703          	lw	a4,-2040(a5)
    1d20:	ffffe7b7          	lui	a5,0xffffe
    1d24:	ff078793          	addi	a5,a5,-16 # ffffdff0 <__stack_top+0xffff5ff4>
    1d28:	008786b3          	add	a3,a5,s0
    1d2c:	fe042783          	lw	a5,-32(s0)
    1d30:	00279793          	slli	a5,a5,0x2
    1d34:	00f687b3          	add	a5,a3,a5
    1d38:	7cc7a783          	lw	a5,1996(a5)
    1d3c:	00f71e63          	bne	a4,a5,1d58 <main+0x1d14>
    1d40:	fe442783          	lw	a5,-28(s0)
    1d44:	00178793          	addi	a5,a5,1
    1d48:	fef42223          	sw	a5,-28(s0)
    1d4c:	fe042783          	lw	a5,-32(s0)
    1d50:	00178793          	addi	a5,a5,1
    1d54:	fef42023          	sw	a5,-32(s0)
    1d58:	fe042703          	lw	a4,-32(s0)
    1d5c:	f1c42783          	lw	a5,-228(s0)
    1d60:	04f71e63          	bne	a4,a5,1dbc <main+0x1d78>
    1d64:	fa442783          	lw	a5,-92(s0)
    1d68:	00178793          	addi	a5,a5,1
    1d6c:	faf42223          	sw	a5,-92(s0)
    1d70:	fe042783          	lw	a5,-32(s0)
    1d74:	fff78793          	addi	a5,a5,-1
    1d78:	ffffe737          	lui	a4,0xffffe
    1d7c:	ff070713          	addi	a4,a4,-16 # ffffdff0 <__stack_top+0xffff5ff4>
    1d80:	00870733          	add	a4,a4,s0
    1d84:	00279793          	slli	a5,a5,0x2
    1d88:	00f707b3          	add	a5,a4,a5
    1d8c:	7907a783          	lw	a5,1936(a5)
    1d90:	fef42023          	sw	a5,-32(s0)
    1d94:	ffffe7b7          	lui	a5,0xffffe
    1d98:	ff078793          	addi	a5,a5,-16 # ffffdff0 <__stack_top+0xffff5ff4>
    1d9c:	008787b3          	add	a5,a5,s0
    1da0:	0c07a783          	lw	a5,192(a5)
    1da4:	00178713          	addi	a4,a5,1
    1da8:	ffffe7b7          	lui	a5,0xffffe
    1dac:	ff078793          	addi	a5,a5,-16 # ffffdff0 <__stack_top+0xffff5ff4>
    1db0:	008787b3          	add	a5,a5,s0
    1db4:	0ce7a023          	sw	a4,192(a5)
    1db8:	0880006f          	j	1e40 <main+0x1dfc>
    1dbc:	fe442703          	lw	a4,-28(s0)
    1dc0:	f1842783          	lw	a5,-232(s0)
    1dc4:	06f75e63          	bge	a4,a5,1e40 <main+0x1dfc>
    1dc8:	fffff7b7          	lui	a5,0xfffff
    1dcc:	ff078793          	addi	a5,a5,-16 # ffffeff0 <__stack_top+0xffff6ff4>
    1dd0:	00878733          	add	a4,a5,s0
    1dd4:	fe442783          	lw	a5,-28(s0)
    1dd8:	00279793          	slli	a5,a5,0x2
    1ddc:	00f707b3          	add	a5,a4,a5
    1de0:	8087a703          	lw	a4,-2040(a5)
    1de4:	ffffe7b7          	lui	a5,0xffffe
    1de8:	ff078793          	addi	a5,a5,-16 # ffffdff0 <__stack_top+0xffff5ff4>
    1dec:	008786b3          	add	a3,a5,s0
    1df0:	fe042783          	lw	a5,-32(s0)
    1df4:	00279793          	slli	a5,a5,0x2
    1df8:	00f687b3          	add	a5,a3,a5
    1dfc:	7cc7a783          	lw	a5,1996(a5)
    1e00:	04f70063          	beq	a4,a5,1e40 <main+0x1dfc>
    1e04:	fe042783          	lw	a5,-32(s0)
    1e08:	02078663          	beqz	a5,1e34 <main+0x1df0>
    1e0c:	fe042783          	lw	a5,-32(s0)
    1e10:	fff78793          	addi	a5,a5,-1
    1e14:	ffffe737          	lui	a4,0xffffe
    1e18:	ff070713          	addi	a4,a4,-16 # ffffdff0 <__stack_top+0xffff5ff4>
    1e1c:	00870733          	add	a4,a4,s0
    1e20:	00279793          	slli	a5,a5,0x2
    1e24:	00f707b3          	add	a5,a4,a5
    1e28:	7907a783          	lw	a5,1936(a5)
    1e2c:	fef42023          	sw	a5,-32(s0)
    1e30:	0100006f          	j	1e40 <main+0x1dfc>
    1e34:	fe442783          	lw	a5,-28(s0)
    1e38:	00178793          	addi	a5,a5,1
    1e3c:	fef42223          	sw	a5,-28(s0)
    1e40:	fe842703          	lw	a4,-24(s0)
    1e44:	fe442783          	lw	a5,-28(s0)
    1e48:	00f70733          	add	a4,a4,a5
    1e4c:	fe042783          	lw	a5,-32(s0)
    1e50:	00f707b3          	add	a5,a4,a5
    1e54:	14b00593          	li	a1,331
    1e58:	00078513          	mv	a0,a5
    1e5c:	3c8020ef          	jal	4224 <__modsi3>
    1e60:	00050793          	mv	a5,a0
    1e64:	fef42423          	sw	a5,-24(s0)
    1e68:	fe442703          	lw	a4,-28(s0)
    1e6c:	f1842783          	lw	a5,-232(s0)
    1e70:	e8f74ae3          	blt	a4,a5,1d04 <main+0x1cc0>
    1e74:	ffffe7b7          	lui	a5,0xffffe
    1e78:	ff078793          	addi	a5,a5,-16 # ffffdff0 <__stack_top+0xffff5ff4>
    1e7c:	008787b3          	add	a5,a5,s0
    1e80:	fa442703          	lw	a4,-92(s0)
    1e84:	0ee7a423          	sw	a4,232(a5)
    1e88:	ffffe7b7          	lui	a5,0xffffe
    1e8c:	ff078793          	addi	a5,a5,-16 # ffffdff0 <__stack_top+0xffff5ff4>
    1e90:	008787b3          	add	a5,a5,s0
    1e94:	0e87a703          	lw	a4,232(a5)
    1e98:	00070793          	mv	a5,a4
    1e9c:	00279793          	slli	a5,a5,0x2
    1ea0:	00e787b3          	add	a5,a5,a4
    1ea4:	00179793          	slli	a5,a5,0x1
    1ea8:	00078713          	mv	a4,a5
    1eac:	fec42783          	lw	a5,-20(s0)
    1eb0:	00e787b3          	add	a5,a5,a4
    1eb4:	fef42623          	sw	a5,-20(s0)
    1eb8:	fa442783          	lw	a5,-92(s0)
    1ebc:	d6f42a23          	sw	a5,-652(s0)
    1ec0:	ffffe7b7          	lui	a5,0xffffe
    1ec4:	ff078793          	addi	a5,a5,-16 # ffffdff0 <__stack_top+0xffff5ff4>
    1ec8:	008787b3          	add	a5,a5,s0
    1ecc:	7a87a783          	lw	a5,1960(a5)
    1ed0:	d6f42c23          	sw	a5,-648(s0)
    1ed4:	ffffe7b7          	lui	a5,0xffffe
    1ed8:	ff078793          	addi	a5,a5,-16 # ffffdff0 <__stack_top+0xffff5ff4>
    1edc:	008787b3          	add	a5,a5,s0
    1ee0:	0c07a783          	lw	a5,192(a5)
    1ee4:	d6f42e23          	sw	a5,-644(s0)
    1ee8:	fe842783          	lw	a5,-24(s0)
    1eec:	d8f42023          	sw	a5,-640(s0)
    1ef0:	fe042223          	sw	zero,-28(s0)
    1ef4:	0300006f          	j	1f24 <main+0x1ee0>
    1ef8:	ffffe7b7          	lui	a5,0xffffe
    1efc:	ff078793          	addi	a5,a5,-16 # ffffdff0 <__stack_top+0xffff5ff4>
    1f00:	00878733          	add	a4,a5,s0
    1f04:	fe442783          	lw	a5,-28(s0)
    1f08:	00279793          	slli	a5,a5,0x2
    1f0c:	00f707b3          	add	a5,a4,a5
    1f10:	00100713          	li	a4,1
    1f14:	4ce7aa23          	sw	a4,1236(a5)
    1f18:	fe442783          	lw	a5,-28(s0)
    1f1c:	00178793          	addi	a5,a5,1
    1f20:	fef42223          	sw	a5,-28(s0)
    1f24:	fe442703          	lw	a4,-28(s0)
    1f28:	03100793          	li	a5,49
    1f2c:	fce7d6e3          	bge	a5,a4,1ef8 <main+0x1eb4>
    1f30:	ffffe7b7          	lui	a5,0xffffe
    1f34:	ff078793          	addi	a5,a5,-16 # ffffdff0 <__stack_top+0xffff5ff4>
    1f38:	008787b3          	add	a5,a5,s0
    1f3c:	4c07aa23          	sw	zero,1236(a5)
    1f40:	ffffe7b7          	lui	a5,0xffffe
    1f44:	ff078793          	addi	a5,a5,-16 # ffffdff0 <__stack_top+0xffff5ff4>
    1f48:	008787b3          	add	a5,a5,s0
    1f4c:	4c07ac23          	sw	zero,1240(a5)
    1f50:	00200793          	li	a5,2
    1f54:	fef42223          	sw	a5,-28(s0)
    1f58:	0c40006f          	j	201c <main+0x1fd8>
    1f5c:	ffffe7b7          	lui	a5,0xffffe
    1f60:	ff078793          	addi	a5,a5,-16 # ffffdff0 <__stack_top+0xffff5ff4>
    1f64:	00878733          	add	a4,a5,s0
    1f68:	fe442783          	lw	a5,-28(s0)
    1f6c:	00279793          	slli	a5,a5,0x2
    1f70:	00f707b3          	add	a5,a4,a5
    1f74:	4d47a783          	lw	a5,1236(a5)
    1f78:	08078c63          	beqz	a5,2010 <main+0x1fcc>
    1f7c:	fe442583          	lw	a1,-28(s0)
    1f80:	fe442503          	lw	a0,-28(s0)
    1f84:	1f8020ef          	jal	417c <__mulsi3>
    1f88:	00050793          	mv	a5,a0
    1f8c:	fef42023          	sw	a5,-32(s0)
    1f90:	0740006f          	j	2004 <main+0x1fc0>
    1f94:	ffffe7b7          	lui	a5,0xffffe
    1f98:	ff078793          	addi	a5,a5,-16 # ffffdff0 <__stack_top+0xffff5ff4>
    1f9c:	00878733          	add	a4,a5,s0
    1fa0:	fe042783          	lw	a5,-32(s0)
    1fa4:	00279793          	slli	a5,a5,0x2
    1fa8:	00f707b3          	add	a5,a4,a5
    1fac:	4c07aa23          	sw	zero,1236(a5)
    1fb0:	ffffe7b7          	lui	a5,0xffffe
    1fb4:	ff078793          	addi	a5,a5,-16 # ffffdff0 <__stack_top+0xffff5ff4>
    1fb8:	008787b3          	add	a5,a5,s0
    1fbc:	0c47a783          	lw	a5,196(a5)
    1fc0:	00178713          	addi	a4,a5,1
    1fc4:	ffffe7b7          	lui	a5,0xffffe
    1fc8:	ff078793          	addi	a5,a5,-16 # ffffdff0 <__stack_top+0xffff5ff4>
    1fcc:	008787b3          	add	a5,a5,s0
    1fd0:	0ce7a223          	sw	a4,196(a5)
    1fd4:	fe842703          	lw	a4,-24(s0)
    1fd8:	fe042783          	lw	a5,-32(s0)
    1fdc:	00f707b3          	add	a5,a4,a5
    1fe0:	13d00593          	li	a1,317
    1fe4:	00078513          	mv	a0,a5
    1fe8:	23c020ef          	jal	4224 <__modsi3>
    1fec:	00050793          	mv	a5,a0
    1ff0:	fef42423          	sw	a5,-24(s0)
    1ff4:	fe042703          	lw	a4,-32(s0)
    1ff8:	fe442783          	lw	a5,-28(s0)
    1ffc:	00f707b3          	add	a5,a4,a5
    2000:	fef42023          	sw	a5,-32(s0)
    2004:	fe042703          	lw	a4,-32(s0)
    2008:	03100793          	li	a5,49
    200c:	f8e7d4e3          	bge	a5,a4,1f94 <main+0x1f50>
    2010:	fe442783          	lw	a5,-28(s0)
    2014:	00178793          	addi	a5,a5,1
    2018:	fef42223          	sw	a5,-28(s0)
    201c:	fe442583          	lw	a1,-28(s0)
    2020:	fe442503          	lw	a0,-28(s0)
    2024:	158020ef          	jal	417c <__mulsi3>
    2028:	00050793          	mv	a5,a0
    202c:	00078713          	mv	a4,a5
    2030:	03100793          	li	a5,49
    2034:	f2e7d4e3          	bge	a5,a4,1f5c <main+0x1f18>
    2038:	fa042023          	sw	zero,-96(s0)
    203c:	f8042e23          	sw	zero,-100(s0)
    2040:	00200793          	li	a5,2
    2044:	fef42223          	sw	a5,-28(s0)
    2048:	04c0006f          	j	2094 <main+0x2050>
    204c:	ffffe7b7          	lui	a5,0xffffe
    2050:	ff078793          	addi	a5,a5,-16 # ffffdff0 <__stack_top+0xffff5ff4>
    2054:	00878733          	add	a4,a5,s0
    2058:	fe442783          	lw	a5,-28(s0)
    205c:	00279793          	slli	a5,a5,0x2
    2060:	00f707b3          	add	a5,a4,a5
    2064:	4d47a783          	lw	a5,1236(a5)
    2068:	02078063          	beqz	a5,2088 <main+0x2044>
    206c:	fa042783          	lw	a5,-96(s0)
    2070:	00178793          	addi	a5,a5,1
    2074:	faf42023          	sw	a5,-96(s0)
    2078:	f9c42703          	lw	a4,-100(s0)
    207c:	fe442783          	lw	a5,-28(s0)
    2080:	00f707b3          	add	a5,a4,a5
    2084:	f8f42e23          	sw	a5,-100(s0)
    2088:	fe442783          	lw	a5,-28(s0)
    208c:	00178793          	addi	a5,a5,1
    2090:	fef42223          	sw	a5,-28(s0)
    2094:	fe442703          	lw	a4,-28(s0)
    2098:	03100793          	li	a5,49
    209c:	fae7d8e3          	bge	a5,a4,204c <main+0x2008>
    20a0:	3b100793          	li	a5,945
    20a4:	f8f42c23          	sw	a5,-104(s0)
    20a8:	f8042a23          	sw	zero,-108(s0)
    20ac:	fe042223          	sw	zero,-28(s0)
    20b0:	02c0006f          	j	20dc <main+0x2098>
    20b4:	ffffe7b7          	lui	a5,0xffffe
    20b8:	ff078793          	addi	a5,a5,-16 # ffffdff0 <__stack_top+0xffff5ff4>
    20bc:	00878733          	add	a4,a5,s0
    20c0:	fe442783          	lw	a5,-28(s0)
    20c4:	00279793          	slli	a5,a5,0x2
    20c8:	00f707b3          	add	a5,a4,a5
    20cc:	4a07a623          	sw	zero,1196(a5)
    20d0:	fe442783          	lw	a5,-28(s0)
    20d4:	00178793          	addi	a5,a5,1
    20d8:	fef42223          	sw	a5,-28(s0)
    20dc:	fe442703          	lw	a4,-28(s0)
    20e0:	00900793          	li	a5,9
    20e4:	fce7d8e3          	bge	a5,a4,20b4 <main+0x2070>
    20e8:	00200793          	li	a5,2
    20ec:	fef42223          	sw	a5,-28(s0)
    20f0:	0c40006f          	j	21b4 <main+0x2170>
    20f4:	ffffe7b7          	lui	a5,0xffffe
    20f8:	ff078793          	addi	a5,a5,-16 # ffffdff0 <__stack_top+0xffff5ff4>
    20fc:	00878733          	add	a4,a5,s0
    2100:	f9442783          	lw	a5,-108(s0)
    2104:	00279793          	slli	a5,a5,0x2
    2108:	00f707b3          	add	a5,a4,a5
    210c:	fe442703          	lw	a4,-28(s0)
    2110:	4ae7a623          	sw	a4,1196(a5)
    2114:	f9442783          	lw	a5,-108(s0)
    2118:	00178793          	addi	a5,a5,1
    211c:	f8f42a23          	sw	a5,-108(s0)
    2120:	fe442583          	lw	a1,-28(s0)
    2124:	f9842503          	lw	a0,-104(s0)
    2128:	078020ef          	jal	41a0 <__divsi3>
    212c:	00050793          	mv	a5,a0
    2130:	f8f42c23          	sw	a5,-104(s0)
    2134:	ffffe7b7          	lui	a5,0xffffe
    2138:	ff078793          	addi	a5,a5,-16 # ffffdff0 <__stack_top+0xffff5ff4>
    213c:	008787b3          	add	a5,a5,s0
    2140:	0c47a783          	lw	a5,196(a5)
    2144:	00178713          	addi	a4,a5,1
    2148:	ffffe7b7          	lui	a5,0xffffe
    214c:	ff078793          	addi	a5,a5,-16 # ffffdff0 <__stack_top+0xffff5ff4>
    2150:	008787b3          	add	a5,a5,s0
    2154:	0ce7a223          	sw	a4,196(a5)
    2158:	fe842703          	lw	a4,-24(s0)
    215c:	fe442783          	lw	a5,-28(s0)
    2160:	00f707b3          	add	a5,a4,a5
    2164:	13900593          	li	a1,313
    2168:	00078513          	mv	a0,a5
    216c:	0b8020ef          	jal	4224 <__modsi3>
    2170:	00050793          	mv	a5,a0
    2174:	fef42423          	sw	a5,-24(s0)
    2178:	f9842783          	lw	a5,-104(s0)
    217c:	fe442583          	lw	a1,-28(s0)
    2180:	00078513          	mv	a0,a5
    2184:	0a0020ef          	jal	4224 <__modsi3>
    2188:	00050793          	mv	a5,a0
    218c:	00079863          	bnez	a5,219c <main+0x2158>
    2190:	f9442703          	lw	a4,-108(s0)
    2194:	00900793          	li	a5,9
    2198:	f4e7dee3          	bge	a5,a4,20f4 <main+0x20b0>
    219c:	f9842703          	lw	a4,-104(s0)
    21a0:	00100793          	li	a5,1
    21a4:	02f70663          	beq	a4,a5,21d0 <main+0x218c>
    21a8:	fe442783          	lw	a5,-28(s0)
    21ac:	00178793          	addi	a5,a5,1
    21b0:	fef42223          	sw	a5,-28(s0)
    21b4:	fe442703          	lw	a4,-28(s0)
    21b8:	f9842783          	lw	a5,-104(s0)
    21bc:	00e7cc63          	blt	a5,a4,21d4 <main+0x2190>
    21c0:	f9442703          	lw	a4,-108(s0)
    21c4:	00900793          	li	a5,9
    21c8:	fae7d8e3          	bge	a5,a4,2178 <main+0x2134>
    21cc:	0080006f          	j	21d4 <main+0x2190>
    21d0:	00000013          	nop
    21d4:	fa042703          	lw	a4,-96(s0)
    21d8:	f9442783          	lw	a5,-108(s0)
    21dc:	00f70733          	add	a4,a4,a5
    21e0:	ffffe7b7          	lui	a5,0xffffe
    21e4:	ff078793          	addi	a5,a5,-16 # ffffdff0 <__stack_top+0xffff5ff4>
    21e8:	008787b3          	add	a5,a5,s0
    21ec:	0ee7a623          	sw	a4,236(a5)
    21f0:	ffffe7b7          	lui	a5,0xffffe
    21f4:	ff078793          	addi	a5,a5,-16 # ffffdff0 <__stack_top+0xffff5ff4>
    21f8:	008787b3          	add	a5,a5,s0
    21fc:	0ec7a783          	lw	a5,236(a5)
    2200:	fec42703          	lw	a4,-20(s0)
    2204:	00f707b3          	add	a5,a4,a5
    2208:	fef42623          	sw	a5,-20(s0)
    220c:	fa042783          	lw	a5,-96(s0)
    2210:	d8f42223          	sw	a5,-636(s0)
    2214:	f9c42783          	lw	a5,-100(s0)
    2218:	d8f42423          	sw	a5,-632(s0)
    221c:	f9442783          	lw	a5,-108(s0)
    2220:	d8f42623          	sw	a5,-628(s0)
    2224:	ffffe7b7          	lui	a5,0xffffe
    2228:	ff078793          	addi	a5,a5,-16 # ffffdff0 <__stack_top+0xffff5ff4>
    222c:	008787b3          	add	a5,a5,s0
    2230:	4ac7a783          	lw	a5,1196(a5)
    2234:	d8f42823          	sw	a5,-624(s0)
    2238:	ffffe7b7          	lui	a5,0xffffe
    223c:	ff078793          	addi	a5,a5,-16 # ffffdff0 <__stack_top+0xffff5ff4>
    2240:	008787b3          	add	a5,a5,s0
    2244:	0c47a783          	lw	a5,196(a5)
    2248:	d8f42a23          	sw	a5,-620(s0)
    224c:	fe842783          	lw	a5,-24(s0)
    2250:	d8f42c23          	sw	a5,-616(s0)
    2254:	ffffe7b7          	lui	a5,0xffffe
    2258:	ff078793          	addi	a5,a5,-16 # ffffdff0 <__stack_top+0xffff5ff4>
    225c:	008787b3          	add	a5,a5,s0
    2260:	00100713          	li	a4,1
    2264:	42e7ac23          	sw	a4,1080(a5)
    2268:	ffffe7b7          	lui	a5,0xffffe
    226c:	ff078793          	addi	a5,a5,-16 # ffffdff0 <__stack_top+0xffff5ff4>
    2270:	008787b3          	add	a5,a5,s0
    2274:	00100713          	li	a4,1
    2278:	42e7ae23          	sw	a4,1084(a5)
    227c:	ffffe7b7          	lui	a5,0xffffe
    2280:	ff078793          	addi	a5,a5,-16 # ffffdff0 <__stack_top+0xffff5ff4>
    2284:	008787b3          	add	a5,a5,s0
    2288:	00100713          	li	a4,1
    228c:	44e7a023          	sw	a4,1088(a5)
    2290:	ffffe7b7          	lui	a5,0xffffe
    2294:	ff078793          	addi	a5,a5,-16 # ffffdff0 <__stack_top+0xffff5ff4>
    2298:	008787b3          	add	a5,a5,s0
    229c:	4407a223          	sw	zero,1092(a5)
    22a0:	ffffe7b7          	lui	a5,0xffffe
    22a4:	ff078793          	addi	a5,a5,-16 # ffffdff0 <__stack_top+0xffff5ff4>
    22a8:	008787b3          	add	a5,a5,s0
    22ac:	00100713          	li	a4,1
    22b0:	fce7a223          	sw	a4,-60(a5)
    22b4:	ffffe7b7          	lui	a5,0xffffe
    22b8:	ff078793          	addi	a5,a5,-16 # ffffdff0 <__stack_top+0xffff5ff4>
    22bc:	008787b3          	add	a5,a5,s0
    22c0:	fc07a423          	sw	zero,-56(a5)
    22c4:	ffffe7b7          	lui	a5,0xffffe
    22c8:	ff078793          	addi	a5,a5,-16 # ffffdff0 <__stack_top+0xffff5ff4>
    22cc:	008787b3          	add	a5,a5,s0
    22d0:	fc07a623          	sw	zero,-52(a5)
    22d4:	ffffe7b7          	lui	a5,0xffffe
    22d8:	ff078793          	addi	a5,a5,-16 # ffffdff0 <__stack_top+0xffff5ff4>
    22dc:	008787b3          	add	a5,a5,s0
    22e0:	00100713          	li	a4,1
    22e4:	fce7a823          	sw	a4,-48(a5)
    22e8:	00f00793          	li	a5,15
    22ec:	f8f42823          	sw	a5,-112(s0)
    22f0:	4840006f          	j	2774 <main+0x2730>
    22f4:	f9042783          	lw	a5,-112(s0)
    22f8:	0017f793          	andi	a5,a5,1
    22fc:	24078463          	beqz	a5,2544 <main+0x2500>
    2300:	ffffe7b7          	lui	a5,0xffffe
    2304:	ff078793          	addi	a5,a5,-16 # ffffdff0 <__stack_top+0xffff5ff4>
    2308:	008787b3          	add	a5,a5,s0
    230c:	fc47a703          	lw	a4,-60(a5)
    2310:	ffffe7b7          	lui	a5,0xffffe
    2314:	ff078793          	addi	a5,a5,-16 # ffffdff0 <__stack_top+0xffff5ff4>
    2318:	008787b3          	add	a5,a5,s0
    231c:	4387a783          	lw	a5,1080(a5)
    2320:	00078593          	mv	a1,a5
    2324:	00070513          	mv	a0,a4
    2328:	655010ef          	jal	417c <__mulsi3>
    232c:	00050793          	mv	a5,a0
    2330:	00078493          	mv	s1,a5
    2334:	ffffe7b7          	lui	a5,0xffffe
    2338:	ff078793          	addi	a5,a5,-16 # ffffdff0 <__stack_top+0xffff5ff4>
    233c:	008787b3          	add	a5,a5,s0
    2340:	fc87a703          	lw	a4,-56(a5)
    2344:	ffffe7b7          	lui	a5,0xffffe
    2348:	ff078793          	addi	a5,a5,-16 # ffffdff0 <__stack_top+0xffff5ff4>
    234c:	008787b3          	add	a5,a5,s0
    2350:	4407a783          	lw	a5,1088(a5)
    2354:	00078593          	mv	a1,a5
    2358:	00070513          	mv	a0,a4
    235c:	621010ef          	jal	417c <__mulsi3>
    2360:	00050793          	mv	a5,a0
    2364:	00f487b3          	add	a5,s1,a5
    2368:	eaf42e23          	sw	a5,-324(s0)
    236c:	ffffe7b7          	lui	a5,0xffffe
    2370:	ff078793          	addi	a5,a5,-16 # ffffdff0 <__stack_top+0xffff5ff4>
    2374:	008787b3          	add	a5,a5,s0
    2378:	fc47a703          	lw	a4,-60(a5)
    237c:	ffffe7b7          	lui	a5,0xffffe
    2380:	ff078793          	addi	a5,a5,-16 # ffffdff0 <__stack_top+0xffff5ff4>
    2384:	008787b3          	add	a5,a5,s0
    2388:	43c7a783          	lw	a5,1084(a5)
    238c:	00078593          	mv	a1,a5
    2390:	00070513          	mv	a0,a4
    2394:	5e9010ef          	jal	417c <__mulsi3>
    2398:	00050793          	mv	a5,a0
    239c:	00078493          	mv	s1,a5
    23a0:	ffffe7b7          	lui	a5,0xffffe
    23a4:	ff078793          	addi	a5,a5,-16 # ffffdff0 <__stack_top+0xffff5ff4>
    23a8:	008787b3          	add	a5,a5,s0
    23ac:	fc87a703          	lw	a4,-56(a5)
    23b0:	ffffe7b7          	lui	a5,0xffffe
    23b4:	ff078793          	addi	a5,a5,-16 # ffffdff0 <__stack_top+0xffff5ff4>
    23b8:	008787b3          	add	a5,a5,s0
    23bc:	4447a783          	lw	a5,1092(a5)
    23c0:	00078593          	mv	a1,a5
    23c4:	00070513          	mv	a0,a4
    23c8:	5b5010ef          	jal	417c <__mulsi3>
    23cc:	00050793          	mv	a5,a0
    23d0:	00f487b3          	add	a5,s1,a5
    23d4:	eaf42c23          	sw	a5,-328(s0)
    23d8:	ffffe7b7          	lui	a5,0xffffe
    23dc:	ff078793          	addi	a5,a5,-16 # ffffdff0 <__stack_top+0xffff5ff4>
    23e0:	008787b3          	add	a5,a5,s0
    23e4:	fcc7a703          	lw	a4,-52(a5)
    23e8:	ffffe7b7          	lui	a5,0xffffe
    23ec:	ff078793          	addi	a5,a5,-16 # ffffdff0 <__stack_top+0xffff5ff4>
    23f0:	008787b3          	add	a5,a5,s0
    23f4:	4387a783          	lw	a5,1080(a5)
    23f8:	00078593          	mv	a1,a5
    23fc:	00070513          	mv	a0,a4
    2400:	57d010ef          	jal	417c <__mulsi3>
    2404:	00050793          	mv	a5,a0
    2408:	00078493          	mv	s1,a5
    240c:	ffffe7b7          	lui	a5,0xffffe
    2410:	ff078793          	addi	a5,a5,-16 # ffffdff0 <__stack_top+0xffff5ff4>
    2414:	008787b3          	add	a5,a5,s0
    2418:	fd07a703          	lw	a4,-48(a5)
    241c:	ffffe7b7          	lui	a5,0xffffe
    2420:	ff078793          	addi	a5,a5,-16 # ffffdff0 <__stack_top+0xffff5ff4>
    2424:	008787b3          	add	a5,a5,s0
    2428:	4407a783          	lw	a5,1088(a5)
    242c:	00078593          	mv	a1,a5
    2430:	00070513          	mv	a0,a4
    2434:	549010ef          	jal	417c <__mulsi3>
    2438:	00050793          	mv	a5,a0
    243c:	00f487b3          	add	a5,s1,a5
    2440:	eaf42a23          	sw	a5,-332(s0)
    2444:	ffffe7b7          	lui	a5,0xffffe
    2448:	ff078793          	addi	a5,a5,-16 # ffffdff0 <__stack_top+0xffff5ff4>
    244c:	008787b3          	add	a5,a5,s0
    2450:	fcc7a703          	lw	a4,-52(a5)
    2454:	ffffe7b7          	lui	a5,0xffffe
    2458:	ff078793          	addi	a5,a5,-16 # ffffdff0 <__stack_top+0xffff5ff4>
    245c:	008787b3          	add	a5,a5,s0
    2460:	43c7a783          	lw	a5,1084(a5)
    2464:	00078593          	mv	a1,a5
    2468:	00070513          	mv	a0,a4
    246c:	511010ef          	jal	417c <__mulsi3>
    2470:	00050793          	mv	a5,a0
    2474:	00078493          	mv	s1,a5
    2478:	ffffe7b7          	lui	a5,0xffffe
    247c:	ff078793          	addi	a5,a5,-16 # ffffdff0 <__stack_top+0xffff5ff4>
    2480:	008787b3          	add	a5,a5,s0
    2484:	fd07a703          	lw	a4,-48(a5)
    2488:	ffffe7b7          	lui	a5,0xffffe
    248c:	ff078793          	addi	a5,a5,-16 # ffffdff0 <__stack_top+0xffff5ff4>
    2490:	008787b3          	add	a5,a5,s0
    2494:	4447a783          	lw	a5,1092(a5)
    2498:	00078593          	mv	a1,a5
    249c:	00070513          	mv	a0,a4
    24a0:	4dd010ef          	jal	417c <__mulsi3>
    24a4:	00050793          	mv	a5,a0
    24a8:	00f487b3          	add	a5,s1,a5
    24ac:	eaf42823          	sw	a5,-336(s0)
    24b0:	ffffe7b7          	lui	a5,0xffffe
    24b4:	ff078793          	addi	a5,a5,-16 # ffffdff0 <__stack_top+0xffff5ff4>
    24b8:	008787b3          	add	a5,a5,s0
    24bc:	ebc42703          	lw	a4,-324(s0)
    24c0:	fce7a223          	sw	a4,-60(a5)
    24c4:	ffffe7b7          	lui	a5,0xffffe
    24c8:	ff078793          	addi	a5,a5,-16 # ffffdff0 <__stack_top+0xffff5ff4>
    24cc:	008787b3          	add	a5,a5,s0
    24d0:	eb842703          	lw	a4,-328(s0)
    24d4:	fce7a423          	sw	a4,-56(a5)
    24d8:	ffffe7b7          	lui	a5,0xffffe
    24dc:	ff078793          	addi	a5,a5,-16 # ffffdff0 <__stack_top+0xffff5ff4>
    24e0:	008787b3          	add	a5,a5,s0
    24e4:	eb442703          	lw	a4,-332(s0)
    24e8:	fce7a623          	sw	a4,-52(a5)
    24ec:	ffffe7b7          	lui	a5,0xffffe
    24f0:	ff078793          	addi	a5,a5,-16 # ffffdff0 <__stack_top+0xffff5ff4>
    24f4:	008787b3          	add	a5,a5,s0
    24f8:	eb042703          	lw	a4,-336(s0)
    24fc:	fce7a823          	sw	a4,-48(a5)
    2500:	ffffe7b7          	lui	a5,0xffffe
    2504:	ff078793          	addi	a5,a5,-16 # ffffdff0 <__stack_top+0xffff5ff4>
    2508:	008787b3          	add	a5,a5,s0
    250c:	0c87a783          	lw	a5,200(a5)
    2510:	00178713          	addi	a4,a5,1
    2514:	ffffe7b7          	lui	a5,0xffffe
    2518:	ff078793          	addi	a5,a5,-16 # ffffdff0 <__stack_top+0xffff5ff4>
    251c:	008787b3          	add	a5,a5,s0
    2520:	0ce7a423          	sw	a4,200(a5)
    2524:	fe842703          	lw	a4,-24(s0)
    2528:	ebc42783          	lw	a5,-324(s0)
    252c:	00f707b3          	add	a5,a4,a5
    2530:	13300593          	li	a1,307
    2534:	00078513          	mv	a0,a5
    2538:	4ed010ef          	jal	4224 <__modsi3>
    253c:	00050793          	mv	a5,a0
    2540:	fef42423          	sw	a5,-24(s0)
    2544:	ffffe7b7          	lui	a5,0xffffe
    2548:	ff078793          	addi	a5,a5,-16 # ffffdff0 <__stack_top+0xffff5ff4>
    254c:	008787b3          	add	a5,a5,s0
    2550:	4387a703          	lw	a4,1080(a5)
    2554:	ffffe7b7          	lui	a5,0xffffe
    2558:	ff078793          	addi	a5,a5,-16 # ffffdff0 <__stack_top+0xffff5ff4>
    255c:	008787b3          	add	a5,a5,s0
    2560:	4387a783          	lw	a5,1080(a5)
    2564:	00078593          	mv	a1,a5
    2568:	00070513          	mv	a0,a4
    256c:	411010ef          	jal	417c <__mulsi3>
    2570:	00050793          	mv	a5,a0
    2574:	00078493          	mv	s1,a5
    2578:	ffffe7b7          	lui	a5,0xffffe
    257c:	ff078793          	addi	a5,a5,-16 # ffffdff0 <__stack_top+0xffff5ff4>
    2580:	008787b3          	add	a5,a5,s0
    2584:	43c7a703          	lw	a4,1084(a5)
    2588:	ffffe7b7          	lui	a5,0xffffe
    258c:	ff078793          	addi	a5,a5,-16 # ffffdff0 <__stack_top+0xffff5ff4>
    2590:	008787b3          	add	a5,a5,s0
    2594:	4407a783          	lw	a5,1088(a5)
    2598:	00078593          	mv	a1,a5
    259c:	00070513          	mv	a0,a4
    25a0:	3dd010ef          	jal	417c <__mulsi3>
    25a4:	00050793          	mv	a5,a0
    25a8:	00f487b3          	add	a5,s1,a5
    25ac:	eaf42e23          	sw	a5,-324(s0)
    25b0:	ffffe7b7          	lui	a5,0xffffe
    25b4:	ff078793          	addi	a5,a5,-16 # ffffdff0 <__stack_top+0xffff5ff4>
    25b8:	008787b3          	add	a5,a5,s0
    25bc:	4387a703          	lw	a4,1080(a5)
    25c0:	ffffe7b7          	lui	a5,0xffffe
    25c4:	ff078793          	addi	a5,a5,-16 # ffffdff0 <__stack_top+0xffff5ff4>
    25c8:	008787b3          	add	a5,a5,s0
    25cc:	43c7a783          	lw	a5,1084(a5)
    25d0:	00078593          	mv	a1,a5
    25d4:	00070513          	mv	a0,a4
    25d8:	3a5010ef          	jal	417c <__mulsi3>
    25dc:	00050793          	mv	a5,a0
    25e0:	00078493          	mv	s1,a5
    25e4:	ffffe7b7          	lui	a5,0xffffe
    25e8:	ff078793          	addi	a5,a5,-16 # ffffdff0 <__stack_top+0xffff5ff4>
    25ec:	008787b3          	add	a5,a5,s0
    25f0:	43c7a703          	lw	a4,1084(a5)
    25f4:	ffffe7b7          	lui	a5,0xffffe
    25f8:	ff078793          	addi	a5,a5,-16 # ffffdff0 <__stack_top+0xffff5ff4>
    25fc:	008787b3          	add	a5,a5,s0
    2600:	4447a783          	lw	a5,1092(a5)
    2604:	00078593          	mv	a1,a5
    2608:	00070513          	mv	a0,a4
    260c:	371010ef          	jal	417c <__mulsi3>
    2610:	00050793          	mv	a5,a0
    2614:	00f487b3          	add	a5,s1,a5
    2618:	eaf42c23          	sw	a5,-328(s0)
    261c:	ffffe7b7          	lui	a5,0xffffe
    2620:	ff078793          	addi	a5,a5,-16 # ffffdff0 <__stack_top+0xffff5ff4>
    2624:	008787b3          	add	a5,a5,s0
    2628:	4407a703          	lw	a4,1088(a5)
    262c:	ffffe7b7          	lui	a5,0xffffe
    2630:	ff078793          	addi	a5,a5,-16 # ffffdff0 <__stack_top+0xffff5ff4>
    2634:	008787b3          	add	a5,a5,s0
    2638:	4387a783          	lw	a5,1080(a5)
    263c:	00078593          	mv	a1,a5
    2640:	00070513          	mv	a0,a4
    2644:	339010ef          	jal	417c <__mulsi3>
    2648:	00050793          	mv	a5,a0
    264c:	00078493          	mv	s1,a5
    2650:	ffffe7b7          	lui	a5,0xffffe
    2654:	ff078793          	addi	a5,a5,-16 # ffffdff0 <__stack_top+0xffff5ff4>
    2658:	008787b3          	add	a5,a5,s0
    265c:	4447a703          	lw	a4,1092(a5)
    2660:	ffffe7b7          	lui	a5,0xffffe
    2664:	ff078793          	addi	a5,a5,-16 # ffffdff0 <__stack_top+0xffff5ff4>
    2668:	008787b3          	add	a5,a5,s0
    266c:	4407a783          	lw	a5,1088(a5)
    2670:	00078593          	mv	a1,a5
    2674:	00070513          	mv	a0,a4
    2678:	305010ef          	jal	417c <__mulsi3>
    267c:	00050793          	mv	a5,a0
    2680:	00f487b3          	add	a5,s1,a5
    2684:	eaf42a23          	sw	a5,-332(s0)
    2688:	ffffe7b7          	lui	a5,0xffffe
    268c:	ff078793          	addi	a5,a5,-16 # ffffdff0 <__stack_top+0xffff5ff4>
    2690:	008787b3          	add	a5,a5,s0
    2694:	4407a703          	lw	a4,1088(a5)
    2698:	ffffe7b7          	lui	a5,0xffffe
    269c:	ff078793          	addi	a5,a5,-16 # ffffdff0 <__stack_top+0xffff5ff4>
    26a0:	008787b3          	add	a5,a5,s0
    26a4:	43c7a783          	lw	a5,1084(a5)
    26a8:	00078593          	mv	a1,a5
    26ac:	00070513          	mv	a0,a4
    26b0:	2cd010ef          	jal	417c <__mulsi3>
    26b4:	00050793          	mv	a5,a0
    26b8:	00078493          	mv	s1,a5
    26bc:	ffffe7b7          	lui	a5,0xffffe
    26c0:	ff078793          	addi	a5,a5,-16 # ffffdff0 <__stack_top+0xffff5ff4>
    26c4:	008787b3          	add	a5,a5,s0
    26c8:	4447a703          	lw	a4,1092(a5)
    26cc:	ffffe7b7          	lui	a5,0xffffe
    26d0:	ff078793          	addi	a5,a5,-16 # ffffdff0 <__stack_top+0xffff5ff4>
    26d4:	008787b3          	add	a5,a5,s0
    26d8:	4447a783          	lw	a5,1092(a5)
    26dc:	00078593          	mv	a1,a5
    26e0:	00070513          	mv	a0,a4
    26e4:	299010ef          	jal	417c <__mulsi3>
    26e8:	00050793          	mv	a5,a0
    26ec:	00f487b3          	add	a5,s1,a5
    26f0:	eaf42623          	sw	a5,-340(s0)
    26f4:	ffffe7b7          	lui	a5,0xffffe
    26f8:	ff078793          	addi	a5,a5,-16 # ffffdff0 <__stack_top+0xffff5ff4>
    26fc:	008787b3          	add	a5,a5,s0
    2700:	ebc42703          	lw	a4,-324(s0)
    2704:	42e7ac23          	sw	a4,1080(a5)
    2708:	ffffe7b7          	lui	a5,0xffffe
    270c:	ff078793          	addi	a5,a5,-16 # ffffdff0 <__stack_top+0xffff5ff4>
    2710:	008787b3          	add	a5,a5,s0
    2714:	eb842703          	lw	a4,-328(s0)
    2718:	42e7ae23          	sw	a4,1084(a5)
    271c:	ffffe7b7          	lui	a5,0xffffe
    2720:	ff078793          	addi	a5,a5,-16 # ffffdff0 <__stack_top+0xffff5ff4>
    2724:	008787b3          	add	a5,a5,s0
    2728:	eb442703          	lw	a4,-332(s0)
    272c:	44e7a023          	sw	a4,1088(a5)
    2730:	ffffe7b7          	lui	a5,0xffffe
    2734:	ff078793          	addi	a5,a5,-16 # ffffdff0 <__stack_top+0xffff5ff4>
    2738:	008787b3          	add	a5,a5,s0
    273c:	eac42703          	lw	a4,-340(s0)
    2740:	44e7a223          	sw	a4,1092(a5)
    2744:	f9042783          	lw	a5,-112(s0)
    2748:	4017d793          	srai	a5,a5,0x1
    274c:	f8f42823          	sw	a5,-112(s0)
    2750:	ffffe7b7          	lui	a5,0xffffe
    2754:	ff078793          	addi	a5,a5,-16 # ffffdff0 <__stack_top+0xffff5ff4>
    2758:	008787b3          	add	a5,a5,s0
    275c:	0c87a783          	lw	a5,200(a5)
    2760:	00178713          	addi	a4,a5,1
    2764:	ffffe7b7          	lui	a5,0xffffe
    2768:	ff078793          	addi	a5,a5,-16 # ffffdff0 <__stack_top+0xffff5ff4>
    276c:	008787b3          	add	a5,a5,s0
    2770:	0ce7a423          	sw	a4,200(a5)
    2774:	f9042783          	lw	a5,-112(s0)
    2778:	b6f04ee3          	bgtz	a5,22f4 <main+0x22b0>
    277c:	ffffe7b7          	lui	a5,0xffffe
    2780:	ff078793          	addi	a5,a5,-16 # ffffdff0 <__stack_top+0xffff5ff4>
    2784:	008787b3          	add	a5,a5,s0
    2788:	fc87a783          	lw	a5,-56(a5)
    278c:	f0f42a23          	sw	a5,-236(s0)
    2790:	f1442783          	lw	a5,-236(s0)
    2794:	3e800593          	li	a1,1000
    2798:	00078513          	mv	a0,a5
    279c:	289010ef          	jal	4224 <__modsi3>
    27a0:	00050793          	mv	a5,a0
    27a4:	00078713          	mv	a4,a5
    27a8:	ffffe7b7          	lui	a5,0xffffe
    27ac:	ff078793          	addi	a5,a5,-16 # ffffdff0 <__stack_top+0xffff5ff4>
    27b0:	008787b3          	add	a5,a5,s0
    27b4:	0ee7a823          	sw	a4,240(a5)
    27b8:	ffffe7b7          	lui	a5,0xffffe
    27bc:	ff078793          	addi	a5,a5,-16 # ffffdff0 <__stack_top+0xffff5ff4>
    27c0:	008787b3          	add	a5,a5,s0
    27c4:	0f07a783          	lw	a5,240(a5)
    27c8:	fec42703          	lw	a4,-20(s0)
    27cc:	00f707b3          	add	a5,a4,a5
    27d0:	fef42623          	sw	a5,-20(s0)
    27d4:	f1442783          	lw	a5,-236(s0)
    27d8:	d8f42e23          	sw	a5,-612(s0)
    27dc:	ffffe7b7          	lui	a5,0xffffe
    27e0:	ff078793          	addi	a5,a5,-16 # ffffdff0 <__stack_top+0xffff5ff4>
    27e4:	008787b3          	add	a5,a5,s0
    27e8:	fc47a783          	lw	a5,-60(a5)
    27ec:	daf42023          	sw	a5,-608(s0)
    27f0:	ffffe7b7          	lui	a5,0xffffe
    27f4:	ff078793          	addi	a5,a5,-16 # ffffdff0 <__stack_top+0xffff5ff4>
    27f8:	008787b3          	add	a5,a5,s0
    27fc:	0c87a783          	lw	a5,200(a5)
    2800:	daf42223          	sw	a5,-604(s0)
    2804:	fe842783          	lw	a5,-24(s0)
    2808:	daf42423          	sw	a5,-600(s0)
    280c:	fe042223          	sw	zero,-28(s0)
    2810:	0600006f          	j	2870 <main+0x282c>
    2814:	fe442703          	lw	a4,-28(s0)
    2818:	00070793          	mv	a5,a4
    281c:	00379793          	slli	a5,a5,0x3
    2820:	00e787b3          	add	a5,a5,a4
    2824:	00279793          	slli	a5,a5,0x2
    2828:	00e787b3          	add	a5,a5,a4
    282c:	03d78713          	addi	a4,a5,61
    2830:	41f75793          	srai	a5,a4,0x1f
    2834:	0167d793          	srli	a5,a5,0x16
    2838:	00f70733          	add	a4,a4,a5
    283c:	3ff77713          	andi	a4,a4,1023
    2840:	40f707b3          	sub	a5,a4,a5
    2844:	00078693          	mv	a3,a5
    2848:	ffffe7b7          	lui	a5,0xffffe
    284c:	ff078793          	addi	a5,a5,-16 # ffffdff0 <__stack_top+0xffff5ff4>
    2850:	00878733          	add	a4,a5,s0
    2854:	fe442783          	lw	a5,-28(s0)
    2858:	00279793          	slli	a5,a5,0x2
    285c:	00f707b3          	add	a5,a4,a5
    2860:	3ed7a423          	sw	a3,1000(a5)
    2864:	fe442783          	lw	a5,-28(s0)
    2868:	00178793          	addi	a5,a5,1
    286c:	fef42223          	sw	a5,-28(s0)
    2870:	fe442703          	lw	a4,-28(s0)
    2874:	01300793          	li	a5,19
    2878:	f8e7dee3          	bge	a5,a4,2814 <main+0x27d0>
    287c:	fe042223          	sw	zero,-28(s0)
    2880:	02c0006f          	j	28ac <main+0x2868>
    2884:	ffffe7b7          	lui	a5,0xffffe
    2888:	ff078793          	addi	a5,a5,-16 # ffffdff0 <__stack_top+0xffff5ff4>
    288c:	00878733          	add	a4,a5,s0
    2890:	fe442783          	lw	a5,-28(s0)
    2894:	00279793          	slli	a5,a5,0x2
    2898:	00f707b3          	add	a5,a4,a5
    289c:	3c07a023          	sw	zero,960(a5)
    28a0:	fe442783          	lw	a5,-28(s0)
    28a4:	00178793          	addi	a5,a5,1
    28a8:	fef42223          	sw	a5,-28(s0)
    28ac:	fe442703          	lw	a4,-28(s0)
    28b0:	00900793          	li	a5,9
    28b4:	fce7d8e3          	bge	a5,a4,2884 <main+0x2840>
    28b8:	fe042223          	sw	zero,-28(s0)
    28bc:	11c0006f          	j	29d8 <main+0x2994>
    28c0:	ffffe7b7          	lui	a5,0xffffe
    28c4:	ff078793          	addi	a5,a5,-16 # ffffdff0 <__stack_top+0xffff5ff4>
    28c8:	00878733          	add	a4,a5,s0
    28cc:	fe442783          	lw	a5,-28(s0)
    28d0:	00279793          	slli	a5,a5,0x2
    28d4:	00f707b3          	add	a5,a4,a5
    28d8:	3e87a783          	lw	a5,1000(a5)
    28dc:	f8f42623          	sw	a5,-116(s0)
    28e0:	00900793          	li	a5,9
    28e4:	fef42023          	sw	a5,-32(s0)
    28e8:	0dc0006f          	j	29c4 <main+0x2980>
    28ec:	fe042783          	lw	a5,-32(s0)
    28f0:	f8c42703          	lw	a4,-116(s0)
    28f4:	40f757b3          	sra	a5,a4,a5
    28f8:	0017f793          	andi	a5,a5,1
    28fc:	0a078c63          	beqz	a5,29b4 <main+0x2970>
    2900:	ffffe7b7          	lui	a5,0xffffe
    2904:	ff078793          	addi	a5,a5,-16 # ffffdff0 <__stack_top+0xffff5ff4>
    2908:	00878733          	add	a4,a5,s0
    290c:	fe042783          	lw	a5,-32(s0)
    2910:	00279793          	slli	a5,a5,0x2
    2914:	00f707b3          	add	a5,a4,a5
    2918:	3c07a783          	lw	a5,960(a5)
    291c:	02079463          	bnez	a5,2944 <main+0x2900>
    2920:	ffffe7b7          	lui	a5,0xffffe
    2924:	ff078793          	addi	a5,a5,-16 # ffffdff0 <__stack_top+0xffff5ff4>
    2928:	00878733          	add	a4,a5,s0
    292c:	fe042783          	lw	a5,-32(s0)
    2930:	00279793          	slli	a5,a5,0x2
    2934:	00f707b3          	add	a5,a4,a5
    2938:	f8c42703          	lw	a4,-116(s0)
    293c:	3ce7a023          	sw	a4,960(a5)
    2940:	08c0006f          	j	29cc <main+0x2988>
    2944:	ffffe7b7          	lui	a5,0xffffe
    2948:	ff078793          	addi	a5,a5,-16 # ffffdff0 <__stack_top+0xffff5ff4>
    294c:	00878733          	add	a4,a5,s0
    2950:	fe042783          	lw	a5,-32(s0)
    2954:	00279793          	slli	a5,a5,0x2
    2958:	00f707b3          	add	a5,a4,a5
    295c:	3c07a783          	lw	a5,960(a5)
    2960:	f8c42703          	lw	a4,-116(s0)
    2964:	00f747b3          	xor	a5,a4,a5
    2968:	f8f42623          	sw	a5,-116(s0)
    296c:	ffffe7b7          	lui	a5,0xffffe
    2970:	ff078793          	addi	a5,a5,-16 # ffffdff0 <__stack_top+0xffff5ff4>
    2974:	008787b3          	add	a5,a5,s0
    2978:	0cc7a783          	lw	a5,204(a5)
    297c:	00178713          	addi	a4,a5,1
    2980:	ffffe7b7          	lui	a5,0xffffe
    2984:	ff078793          	addi	a5,a5,-16 # ffffdff0 <__stack_top+0xffff5ff4>
    2988:	008787b3          	add	a5,a5,s0
    298c:	0ce7a623          	sw	a4,204(a5)
    2990:	fe842703          	lw	a4,-24(s0)
    2994:	f8c42783          	lw	a5,-116(s0)
    2998:	00f707b3          	add	a5,a4,a5
    299c:	12500593          	li	a1,293
    29a0:	00078513          	mv	a0,a5
    29a4:	081010ef          	jal	4224 <__modsi3>
    29a8:	00050793          	mv	a5,a0
    29ac:	fef42423          	sw	a5,-24(s0)
    29b0:	0080006f          	j	29b8 <main+0x2974>
    29b4:	00000013          	nop
    29b8:	fe042783          	lw	a5,-32(s0)
    29bc:	fff78793          	addi	a5,a5,-1
    29c0:	fef42023          	sw	a5,-32(s0)
    29c4:	fe042783          	lw	a5,-32(s0)
    29c8:	f207d2e3          	bgez	a5,28ec <main+0x28a8>
    29cc:	fe442783          	lw	a5,-28(s0)
    29d0:	00178793          	addi	a5,a5,1
    29d4:	fef42223          	sw	a5,-28(s0)
    29d8:	fe442703          	lw	a4,-28(s0)
    29dc:	01300793          	li	a5,19
    29e0:	eee7d0e3          	bge	a5,a4,28c0 <main+0x287c>
    29e4:	f8042423          	sw	zero,-120(s0)
    29e8:	00900793          	li	a5,9
    29ec:	fef42223          	sw	a5,-28(s0)
    29f0:	0880006f          	j	2a78 <main+0x2a34>
    29f4:	ffffe7b7          	lui	a5,0xffffe
    29f8:	ff078793          	addi	a5,a5,-16 # ffffdff0 <__stack_top+0xffff5ff4>
    29fc:	00878733          	add	a4,a5,s0
    2a00:	fe442783          	lw	a5,-28(s0)
    2a04:	00279793          	slli	a5,a5,0x2
    2a08:	00f707b3          	add	a5,a4,a5
    2a0c:	3c07a703          	lw	a4,960(a5)
    2a10:	f8842783          	lw	a5,-120(s0)
    2a14:	00f74733          	xor	a4,a4,a5
    2a18:	f8842783          	lw	a5,-120(s0)
    2a1c:	00e7d463          	bge	a5,a4,2a24 <main+0x29e0>
    2a20:	00070793          	mv	a5,a4
    2a24:	f8f42423          	sw	a5,-120(s0)
    2a28:	ffffe7b7          	lui	a5,0xffffe
    2a2c:	ff078793          	addi	a5,a5,-16 # ffffdff0 <__stack_top+0xffff5ff4>
    2a30:	00878733          	add	a4,a5,s0
    2a34:	fe442783          	lw	a5,-28(s0)
    2a38:	00279793          	slli	a5,a5,0x2
    2a3c:	00f707b3          	add	a5,a4,a5
    2a40:	3c07a783          	lw	a5,960(a5)
    2a44:	02078463          	beqz	a5,2a6c <main+0x2a28>
    2a48:	ffffe7b7          	lui	a5,0xffffe
    2a4c:	ff078793          	addi	a5,a5,-16 # ffffdff0 <__stack_top+0xffff5ff4>
    2a50:	008787b3          	add	a5,a5,s0
    2a54:	0cc7a783          	lw	a5,204(a5)
    2a58:	00178713          	addi	a4,a5,1
    2a5c:	ffffe7b7          	lui	a5,0xffffe
    2a60:	ff078793          	addi	a5,a5,-16 # ffffdff0 <__stack_top+0xffff5ff4>
    2a64:	008787b3          	add	a5,a5,s0
    2a68:	0ce7a623          	sw	a4,204(a5)
    2a6c:	fe442783          	lw	a5,-28(s0)
    2a70:	fff78793          	addi	a5,a5,-1
    2a74:	fef42223          	sw	a5,-28(s0)
    2a78:	fe442783          	lw	a5,-28(s0)
    2a7c:	f607dce3          	bgez	a5,29f4 <main+0x29b0>
    2a80:	fe042223          	sw	zero,-28(s0)
    2a84:	0740006f          	j	2af8 <main+0x2ab4>
    2a88:	fe442783          	lw	a5,-28(s0)
    2a8c:	4017d713          	srai	a4,a5,0x1
    2a90:	fe442783          	lw	a5,-28(s0)
    2a94:	00f74733          	xor	a4,a4,a5
    2a98:	ffffe7b7          	lui	a5,0xffffe
    2a9c:	ff078793          	addi	a5,a5,-16 # ffffdff0 <__stack_top+0xffff5ff4>
    2aa0:	008786b3          	add	a3,a5,s0
    2aa4:	fe442783          	lw	a5,-28(s0)
    2aa8:	00279793          	slli	a5,a5,0x2
    2aac:	00f687b3          	add	a5,a3,a5
    2ab0:	34e7a023          	sw	a4,832(a5)
    2ab4:	ffffe7b7          	lui	a5,0xffffe
    2ab8:	ff078793          	addi	a5,a5,-16 # ffffdff0 <__stack_top+0xffff5ff4>
    2abc:	00878733          	add	a4,a5,s0
    2ac0:	fe442783          	lw	a5,-28(s0)
    2ac4:	00279793          	slli	a5,a5,0x2
    2ac8:	00f707b3          	add	a5,a4,a5
    2acc:	3407a703          	lw	a4,832(a5)
    2ad0:	fe842783          	lw	a5,-24(s0)
    2ad4:	00f707b3          	add	a5,a4,a5
    2ad8:	11b00593          	li	a1,283
    2adc:	00078513          	mv	a0,a5
    2ae0:	748010ef          	jal	4224 <__modsi3>
    2ae4:	00050793          	mv	a5,a0
    2ae8:	fef42423          	sw	a5,-24(s0)
    2aec:	fe442783          	lw	a5,-28(s0)
    2af0:	00178793          	addi	a5,a5,1
    2af4:	fef42223          	sw	a5,-28(s0)
    2af8:	fe442703          	lw	a4,-28(s0)
    2afc:	00f00793          	li	a5,15
    2b00:	f8e7d4e3          	bge	a5,a4,2a88 <main+0x2a44>
    2b04:	ffffe7b7          	lui	a5,0xffffe
    2b08:	ff078793          	addi	a5,a5,-16 # ffffdff0 <__stack_top+0xffff5ff4>
    2b0c:	008787b3          	add	a5,a5,s0
    2b10:	f8842703          	lw	a4,-120(s0)
    2b14:	0ee7aa23          	sw	a4,244(a5)
    2b18:	ffffe7b7          	lui	a5,0xffffe
    2b1c:	ff078793          	addi	a5,a5,-16 # ffffdff0 <__stack_top+0xffff5ff4>
    2b20:	008787b3          	add	a5,a5,s0
    2b24:	0f47a783          	lw	a5,244(a5)
    2b28:	06400593          	li	a1,100
    2b2c:	00078513          	mv	a0,a5
    2b30:	6f4010ef          	jal	4224 <__modsi3>
    2b34:	00050793          	mv	a5,a0
    2b38:	00078713          	mv	a4,a5
    2b3c:	fec42783          	lw	a5,-20(s0)
    2b40:	00e787b3          	add	a5,a5,a4
    2b44:	fef42623          	sw	a5,-20(s0)
    2b48:	f8842783          	lw	a5,-120(s0)
    2b4c:	daf42623          	sw	a5,-596(s0)
    2b50:	ffffe7b7          	lui	a5,0xffffe
    2b54:	ff078793          	addi	a5,a5,-16 # ffffdff0 <__stack_top+0xffff5ff4>
    2b58:	008787b3          	add	a5,a5,s0
    2b5c:	3d47a783          	lw	a5,980(a5)
    2b60:	daf42823          	sw	a5,-592(s0)
    2b64:	ffffe7b7          	lui	a5,0xffffe
    2b68:	ff078793          	addi	a5,a5,-16 # ffffdff0 <__stack_top+0xffff5ff4>
    2b6c:	008787b3          	add	a5,a5,s0
    2b70:	3687a783          	lw	a5,872(a5)
    2b74:	daf42a23          	sw	a5,-588(s0)
    2b78:	ffffe7b7          	lui	a5,0xffffe
    2b7c:	ff078793          	addi	a5,a5,-16 # ffffdff0 <__stack_top+0xffff5ff4>
    2b80:	008787b3          	add	a5,a5,s0
    2b84:	0cc7a783          	lw	a5,204(a5)
    2b88:	daf42c23          	sw	a5,-584(s0)
    2b8c:	fe842783          	lw	a5,-24(s0)
    2b90:	daf42e23          	sw	a5,-580(s0)
    2b94:	fe042223          	sw	zero,-28(s0)
    2b98:	0480006f          	j	2be0 <main+0x2b9c>
    2b9c:	ffffe7b7          	lui	a5,0xffffe
    2ba0:	ff078793          	addi	a5,a5,-16 # ffffdff0 <__stack_top+0xffff5ff4>
    2ba4:	00878733          	add	a4,a5,s0
    2ba8:	fe442783          	lw	a5,-28(s0)
    2bac:	00279793          	slli	a5,a5,0x2
    2bb0:	00f707b3          	add	a5,a4,a5
    2bb4:	1e07aa23          	sw	zero,500(a5)
    2bb8:	ffffe7b7          	lui	a5,0xffffe
    2bbc:	ff078793          	addi	a5,a5,-16 # ffffdff0 <__stack_top+0xffff5ff4>
    2bc0:	00878733          	add	a4,a5,s0
    2bc4:	fe442783          	lw	a5,-28(s0)
    2bc8:	00279793          	slli	a5,a5,0x2
    2bcc:	00f707b3          	add	a5,a4,a5
    2bd0:	2007ac23          	sw	zero,536(a5)
    2bd4:	fe442783          	lw	a5,-28(s0)
    2bd8:	00178793          	addi	a5,a5,1
    2bdc:	fef42223          	sw	a5,-28(s0)
    2be0:	fe442703          	lw	a4,-28(s0)
    2be4:	00800793          	li	a5,8
    2be8:	fae7dae3          	bge	a5,a4,2b9c <main+0x2b58>
    2bec:	ffffe7b7          	lui	a5,0xffffe
    2bf0:	ff078793          	addi	a5,a5,-16 # ffffdff0 <__stack_top+0xffff5ff4>
    2bf4:	008787b3          	add	a5,a5,s0
    2bf8:	00100713          	li	a4,1
    2bfc:	1ee7aa23          	sw	a4,500(a5)
    2c00:	ffffe7b7          	lui	a5,0xffffe
    2c04:	ff078793          	addi	a5,a5,-16 # ffffdff0 <__stack_top+0xffff5ff4>
    2c08:	008787b3          	add	a5,a5,s0
    2c0c:	00100713          	li	a4,1
    2c10:	20e7a223          	sw	a4,516(a5)
    2c14:	ffffe7b7          	lui	a5,0xffffe
    2c18:	ff078793          	addi	a5,a5,-16 # ffffdff0 <__stack_top+0xffff5ff4>
    2c1c:	008787b3          	add	a5,a5,s0
    2c20:	00200713          	li	a4,2
    2c24:	1ee7ac23          	sw	a4,504(a5)
    2c28:	ffffe7b7          	lui	a5,0xffffe
    2c2c:	ff078793          	addi	a5,a5,-16 # ffffdff0 <__stack_top+0xffff5ff4>
    2c30:	008787b3          	add	a5,a5,s0
    2c34:	00200713          	li	a4,2
    2c38:	20e7a023          	sw	a4,512(a5)
    2c3c:	f8042223          	sw	zero,-124(s0)
    2c40:	fe042223          	sw	zero,-28(s0)
    2c44:	4000006f          	j	3044 <main+0x3000>
    2c48:	ffffe7b7          	lui	a5,0xffffe
    2c4c:	ff078793          	addi	a5,a5,-16 # ffffdff0 <__stack_top+0xffff5ff4>
    2c50:	00878733          	add	a4,a5,s0
    2c54:	fe442783          	lw	a5,-28(s0)
    2c58:	00279793          	slli	a5,a5,0x2
    2c5c:	00f707b3          	add	a5,a4,a5
    2c60:	1f47a783          	lw	a5,500(a5)
    2c64:	3c079a63          	bnez	a5,3038 <main+0x2ff4>
    2c68:	ffffe7b7          	lui	a5,0xffffe
    2c6c:	ff078793          	addi	a5,a5,-16 # ffffdff0 <__stack_top+0xffff5ff4>
    2c70:	00878733          	add	a4,a5,s0
    2c74:	fe442783          	lw	a5,-28(s0)
    2c78:	00279793          	slli	a5,a5,0x2
    2c7c:	00f707b3          	add	a5,a4,a5
    2c80:	00100713          	li	a4,1
    2c84:	1ee7aa23          	sw	a4,500(a5)
    2c88:	f8042023          	sw	zero,-128(s0)
    2c8c:	fe042023          	sw	zero,-32(s0)
    2c90:	1080006f          	j	2d98 <main+0x2d54>
    2c94:	fe042703          	lw	a4,-32(s0)
    2c98:	00070793          	mv	a5,a4
    2c9c:	00179793          	slli	a5,a5,0x1
    2ca0:	00e787b3          	add	a5,a5,a4
    2ca4:	ffffe737          	lui	a4,0xffffe
    2ca8:	ff070713          	addi	a4,a4,-16 # ffffdff0 <__stack_top+0xffff5ff4>
    2cac:	00870733          	add	a4,a4,s0
    2cb0:	00279793          	slli	a5,a5,0x2
    2cb4:	00f707b3          	add	a5,a4,a5
    2cb8:	1f47a683          	lw	a3,500(a5)
    2cbc:	fe042703          	lw	a4,-32(s0)
    2cc0:	00070793          	mv	a5,a4
    2cc4:	00179793          	slli	a5,a5,0x1
    2cc8:	00e787b3          	add	a5,a5,a4
    2ccc:	00178793          	addi	a5,a5,1
    2cd0:	ffffe737          	lui	a4,0xffffe
    2cd4:	ff070713          	addi	a4,a4,-16 # ffffdff0 <__stack_top+0xffff5ff4>
    2cd8:	00870733          	add	a4,a4,s0
    2cdc:	00279793          	slli	a5,a5,0x2
    2ce0:	00f707b3          	add	a5,a4,a5
    2ce4:	1f47a783          	lw	a5,500(a5)
    2ce8:	00f686b3          	add	a3,a3,a5
    2cec:	fe042703          	lw	a4,-32(s0)
    2cf0:	00070793          	mv	a5,a4
    2cf4:	00179793          	slli	a5,a5,0x1
    2cf8:	00e787b3          	add	a5,a5,a4
    2cfc:	00278793          	addi	a5,a5,2
    2d00:	ffffe737          	lui	a4,0xffffe
    2d04:	ff070713          	addi	a4,a4,-16 # ffffdff0 <__stack_top+0xffff5ff4>
    2d08:	00870733          	add	a4,a4,s0
    2d0c:	00279793          	slli	a5,a5,0x2
    2d10:	00f707b3          	add	a5,a4,a5
    2d14:	1f47a783          	lw	a5,500(a5)
    2d18:	00f687b3          	add	a5,a3,a5
    2d1c:	ecf42023          	sw	a5,-320(s0)
    2d20:	ec042703          	lw	a4,-320(s0)
    2d24:	00300793          	li	a5,3
    2d28:	00f71a63          	bne	a4,a5,2d3c <main+0x2cf8>
    2d2c:	f8042783          	lw	a5,-128(s0)
    2d30:	06478793          	addi	a5,a5,100
    2d34:	f8f42023          	sw	a5,-128(s0)
    2d38:	0540006f          	j	2d8c <main+0x2d48>
    2d3c:	ec042703          	lw	a4,-320(s0)
    2d40:	00600793          	li	a5,6
    2d44:	00f71a63          	bne	a4,a5,2d58 <main+0x2d14>
    2d48:	f8042783          	lw	a5,-128(s0)
    2d4c:	f9c78793          	addi	a5,a5,-100
    2d50:	f8f42023          	sw	a5,-128(s0)
    2d54:	0380006f          	j	2d8c <main+0x2d48>
    2d58:	ec042703          	lw	a4,-320(s0)
    2d5c:	00200793          	li	a5,2
    2d60:	00f71a63          	bne	a4,a5,2d74 <main+0x2d30>
    2d64:	f8042783          	lw	a5,-128(s0)
    2d68:	00a78793          	addi	a5,a5,10
    2d6c:	f8f42023          	sw	a5,-128(s0)
    2d70:	01c0006f          	j	2d8c <main+0x2d48>
    2d74:	ec042703          	lw	a4,-320(s0)
    2d78:	00400793          	li	a5,4
    2d7c:	00f71863          	bne	a4,a5,2d8c <main+0x2d48>
    2d80:	f8042783          	lw	a5,-128(s0)
    2d84:	ff678793          	addi	a5,a5,-10
    2d88:	f8f42023          	sw	a5,-128(s0)
    2d8c:	fe042783          	lw	a5,-32(s0)
    2d90:	00178793          	addi	a5,a5,1
    2d94:	fef42023          	sw	a5,-32(s0)
    2d98:	fe042703          	lw	a4,-32(s0)
    2d9c:	00200793          	li	a5,2
    2da0:	eee7dae3          	bge	a5,a4,2c94 <main+0x2c50>
    2da4:	fe042023          	sw	zero,-32(s0)
    2da8:	0e40006f          	j	2e8c <main+0x2e48>
    2dac:	ffffe7b7          	lui	a5,0xffffe
    2db0:	ff078793          	addi	a5,a5,-16 # ffffdff0 <__stack_top+0xffff5ff4>
    2db4:	00878733          	add	a4,a5,s0
    2db8:	fe042783          	lw	a5,-32(s0)
    2dbc:	00279793          	slli	a5,a5,0x2
    2dc0:	00f707b3          	add	a5,a4,a5
    2dc4:	1f47a703          	lw	a4,500(a5)
    2dc8:	fe042783          	lw	a5,-32(s0)
    2dcc:	00378793          	addi	a5,a5,3
    2dd0:	ffffe6b7          	lui	a3,0xffffe
    2dd4:	ff068693          	addi	a3,a3,-16 # ffffdff0 <__stack_top+0xffff5ff4>
    2dd8:	008686b3          	add	a3,a3,s0
    2ddc:	00279793          	slli	a5,a5,0x2
    2de0:	00f687b3          	add	a5,a3,a5
    2de4:	1f47a783          	lw	a5,500(a5)
    2de8:	00f70733          	add	a4,a4,a5
    2dec:	fe042783          	lw	a5,-32(s0)
    2df0:	00678793          	addi	a5,a5,6
    2df4:	ffffe6b7          	lui	a3,0xffffe
    2df8:	ff068693          	addi	a3,a3,-16 # ffffdff0 <__stack_top+0xffff5ff4>
    2dfc:	008686b3          	add	a3,a3,s0
    2e00:	00279793          	slli	a5,a5,0x2
    2e04:	00f687b3          	add	a5,a3,a5
    2e08:	1f47a783          	lw	a5,500(a5)
    2e0c:	00f707b3          	add	a5,a4,a5
    2e10:	ecf42223          	sw	a5,-316(s0)
    2e14:	ec442703          	lw	a4,-316(s0)
    2e18:	00300793          	li	a5,3
    2e1c:	00f71a63          	bne	a4,a5,2e30 <main+0x2dec>
    2e20:	f8042783          	lw	a5,-128(s0)
    2e24:	06478793          	addi	a5,a5,100
    2e28:	f8f42023          	sw	a5,-128(s0)
    2e2c:	0540006f          	j	2e80 <main+0x2e3c>
    2e30:	ec442703          	lw	a4,-316(s0)
    2e34:	00600793          	li	a5,6
    2e38:	00f71a63          	bne	a4,a5,2e4c <main+0x2e08>
    2e3c:	f8042783          	lw	a5,-128(s0)
    2e40:	f9c78793          	addi	a5,a5,-100
    2e44:	f8f42023          	sw	a5,-128(s0)
    2e48:	0380006f          	j	2e80 <main+0x2e3c>
    2e4c:	ec442703          	lw	a4,-316(s0)
    2e50:	00200793          	li	a5,2
    2e54:	00f71a63          	bne	a4,a5,2e68 <main+0x2e24>
    2e58:	f8042783          	lw	a5,-128(s0)
    2e5c:	00a78793          	addi	a5,a5,10
    2e60:	f8f42023          	sw	a5,-128(s0)
    2e64:	01c0006f          	j	2e80 <main+0x2e3c>
    2e68:	ec442703          	lw	a4,-316(s0)
    2e6c:	00400793          	li	a5,4
    2e70:	00f71863          	bne	a4,a5,2e80 <main+0x2e3c>
    2e74:	f8042783          	lw	a5,-128(s0)
    2e78:	ff678793          	addi	a5,a5,-10
    2e7c:	f8f42023          	sw	a5,-128(s0)
    2e80:	fe042783          	lw	a5,-32(s0)
    2e84:	00178793          	addi	a5,a5,1
    2e88:	fef42023          	sw	a5,-32(s0)
    2e8c:	fe042703          	lw	a4,-32(s0)
    2e90:	00200793          	li	a5,2
    2e94:	f0e7dce3          	bge	a5,a4,2dac <main+0x2d68>
    2e98:	ffffe7b7          	lui	a5,0xffffe
    2e9c:	ff078793          	addi	a5,a5,-16 # ffffdff0 <__stack_top+0xffff5ff4>
    2ea0:	008787b3          	add	a5,a5,s0
    2ea4:	1f47a703          	lw	a4,500(a5)
    2ea8:	ffffe7b7          	lui	a5,0xffffe
    2eac:	ff078793          	addi	a5,a5,-16 # ffffdff0 <__stack_top+0xffff5ff4>
    2eb0:	008787b3          	add	a5,a5,s0
    2eb4:	2047a783          	lw	a5,516(a5)
    2eb8:	00f70733          	add	a4,a4,a5
    2ebc:	ffffe7b7          	lui	a5,0xffffe
    2ec0:	ff078793          	addi	a5,a5,-16 # ffffdff0 <__stack_top+0xffff5ff4>
    2ec4:	008787b3          	add	a5,a5,s0
    2ec8:	2147a783          	lw	a5,532(a5)
    2ecc:	00f707b3          	add	a5,a4,a5
    2ed0:	ecf42623          	sw	a5,-308(s0)
    2ed4:	ffffe7b7          	lui	a5,0xffffe
    2ed8:	ff078793          	addi	a5,a5,-16 # ffffdff0 <__stack_top+0xffff5ff4>
    2edc:	008787b3          	add	a5,a5,s0
    2ee0:	1fc7a703          	lw	a4,508(a5)
    2ee4:	ffffe7b7          	lui	a5,0xffffe
    2ee8:	ff078793          	addi	a5,a5,-16 # ffffdff0 <__stack_top+0xffff5ff4>
    2eec:	008787b3          	add	a5,a5,s0
    2ef0:	2047a783          	lw	a5,516(a5)
    2ef4:	00f70733          	add	a4,a4,a5
    2ef8:	ffffe7b7          	lui	a5,0xffffe
    2efc:	ff078793          	addi	a5,a5,-16 # ffffdff0 <__stack_top+0xffff5ff4>
    2f00:	008787b3          	add	a5,a5,s0
    2f04:	20c7a783          	lw	a5,524(a5)
    2f08:	00f707b3          	add	a5,a4,a5
    2f0c:	ecf42423          	sw	a5,-312(s0)
    2f10:	ecc42703          	lw	a4,-308(s0)
    2f14:	00300793          	li	a5,3
    2f18:	00f70863          	beq	a4,a5,2f28 <main+0x2ee4>
    2f1c:	ec842703          	lw	a4,-312(s0)
    2f20:	00300793          	li	a5,3
    2f24:	00f71a63          	bne	a4,a5,2f38 <main+0x2ef4>
    2f28:	f8042783          	lw	a5,-128(s0)
    2f2c:	06478793          	addi	a5,a5,100
    2f30:	f8f42023          	sw	a5,-128(s0)
    2f34:	0780006f          	j	2fac <main+0x2f68>
    2f38:	ecc42703          	lw	a4,-308(s0)
    2f3c:	00600793          	li	a5,6
    2f40:	00f70863          	beq	a4,a5,2f50 <main+0x2f0c>
    2f44:	ec842703          	lw	a4,-312(s0)
    2f48:	00600793          	li	a5,6
    2f4c:	00f71a63          	bne	a4,a5,2f60 <main+0x2f1c>
    2f50:	f8042783          	lw	a5,-128(s0)
    2f54:	f9c78793          	addi	a5,a5,-100
    2f58:	f8f42023          	sw	a5,-128(s0)
    2f5c:	0500006f          	j	2fac <main+0x2f68>
    2f60:	ecc42703          	lw	a4,-308(s0)
    2f64:	00200793          	li	a5,2
    2f68:	00f70863          	beq	a4,a5,2f78 <main+0x2f34>
    2f6c:	ec842703          	lw	a4,-312(s0)
    2f70:	00200793          	li	a5,2
    2f74:	00f71a63          	bne	a4,a5,2f88 <main+0x2f44>
    2f78:	f8042783          	lw	a5,-128(s0)
    2f7c:	00a78793          	addi	a5,a5,10
    2f80:	f8f42023          	sw	a5,-128(s0)
    2f84:	0280006f          	j	2fac <main+0x2f68>
    2f88:	ecc42703          	lw	a4,-308(s0)
    2f8c:	00400793          	li	a5,4
    2f90:	00f70863          	beq	a4,a5,2fa0 <main+0x2f5c>
    2f94:	ec842703          	lw	a4,-312(s0)
    2f98:	00400793          	li	a5,4
    2f9c:	00f71863          	bne	a4,a5,2fac <main+0x2f68>
    2fa0:	f8042783          	lw	a5,-128(s0)
    2fa4:	ff678793          	addi	a5,a5,-10
    2fa8:	f8f42023          	sw	a5,-128(s0)
    2fac:	ffffe7b7          	lui	a5,0xffffe
    2fb0:	ff078793          	addi	a5,a5,-16 # ffffdff0 <__stack_top+0xffff5ff4>
    2fb4:	00878733          	add	a4,a5,s0
    2fb8:	fe442783          	lw	a5,-28(s0)
    2fbc:	00279793          	slli	a5,a5,0x2
    2fc0:	00f707b3          	add	a5,a4,a5
    2fc4:	f8042703          	lw	a4,-128(s0)
    2fc8:	20e7ac23          	sw	a4,536(a5)
    2fcc:	ffffe7b7          	lui	a5,0xffffe
    2fd0:	ff078793          	addi	a5,a5,-16 # ffffdff0 <__stack_top+0xffff5ff4>
    2fd4:	00878733          	add	a4,a5,s0
    2fd8:	fe442783          	lw	a5,-28(s0)
    2fdc:	00279793          	slli	a5,a5,0x2
    2fe0:	00f707b3          	add	a5,a4,a5
    2fe4:	1e07aa23          	sw	zero,500(a5)
    2fe8:	f8442783          	lw	a5,-124(s0)
    2fec:	00178793          	addi	a5,a5,1
    2ff0:	f8f42223          	sw	a5,-124(s0)
    2ff4:	ffffe7b7          	lui	a5,0xffffe
    2ff8:	ff078793          	addi	a5,a5,-16 # ffffdff0 <__stack_top+0xffff5ff4>
    2ffc:	008787b3          	add	a5,a5,s0
    3000:	0d07a783          	lw	a5,208(a5)
    3004:	00178713          	addi	a4,a5,1
    3008:	ffffe7b7          	lui	a5,0xffffe
    300c:	ff078793          	addi	a5,a5,-16 # ffffdff0 <__stack_top+0xffff5ff4>
    3010:	008787b3          	add	a5,a5,s0
    3014:	0ce7a823          	sw	a4,208(a5)
    3018:	fe842703          	lw	a4,-24(s0)
    301c:	f8042783          	lw	a5,-128(s0)
    3020:	00f707b3          	add	a5,a4,a5
    3024:	11500593          	li	a1,277
    3028:	00078513          	mv	a0,a5
    302c:	1f8010ef          	jal	4224 <__modsi3>
    3030:	00050793          	mv	a5,a0
    3034:	fef42423          	sw	a5,-24(s0)
    3038:	fe442783          	lw	a5,-28(s0)
    303c:	00178793          	addi	a5,a5,1
    3040:	fef42223          	sw	a5,-28(s0)
    3044:	fe442703          	lw	a4,-28(s0)
    3048:	00800793          	li	a5,8
    304c:	bee7dee3          	bge	a5,a4,2c48 <main+0x2c04>
    3050:	fff00793          	li	a5,-1
    3054:	f6f42e23          	sw	a5,-132(s0)
    3058:	c1800793          	li	a5,-1000
    305c:	f6f42c23          	sw	a5,-136(s0)
    3060:	fe042223          	sw	zero,-28(s0)
    3064:	07c0006f          	j	30e0 <main+0x309c>
    3068:	ffffe7b7          	lui	a5,0xffffe
    306c:	ff078793          	addi	a5,a5,-16 # ffffdff0 <__stack_top+0xffff5ff4>
    3070:	00878733          	add	a4,a5,s0
    3074:	fe442783          	lw	a5,-28(s0)
    3078:	00279793          	slli	a5,a5,0x2
    307c:	00f707b3          	add	a5,a4,a5
    3080:	1f47a783          	lw	a5,500(a5)
    3084:	04079863          	bnez	a5,30d4 <main+0x3090>
    3088:	ffffe7b7          	lui	a5,0xffffe
    308c:	ff078793          	addi	a5,a5,-16 # ffffdff0 <__stack_top+0xffff5ff4>
    3090:	00878733          	add	a4,a5,s0
    3094:	fe442783          	lw	a5,-28(s0)
    3098:	00279793          	slli	a5,a5,0x2
    309c:	00f707b3          	add	a5,a4,a5
    30a0:	2187a783          	lw	a5,536(a5)
    30a4:	f7842703          	lw	a4,-136(s0)
    30a8:	02f75663          	bge	a4,a5,30d4 <main+0x3090>
    30ac:	ffffe7b7          	lui	a5,0xffffe
    30b0:	ff078793          	addi	a5,a5,-16 # ffffdff0 <__stack_top+0xffff5ff4>
    30b4:	00878733          	add	a4,a5,s0
    30b8:	fe442783          	lw	a5,-28(s0)
    30bc:	00279793          	slli	a5,a5,0x2
    30c0:	00f707b3          	add	a5,a4,a5
    30c4:	2187a783          	lw	a5,536(a5)
    30c8:	f6f42c23          	sw	a5,-136(s0)
    30cc:	fe442783          	lw	a5,-28(s0)
    30d0:	f6f42e23          	sw	a5,-132(s0)
    30d4:	fe442783          	lw	a5,-28(s0)
    30d8:	00178793          	addi	a5,a5,1
    30dc:	fef42223          	sw	a5,-28(s0)
    30e0:	fe442703          	lw	a4,-28(s0)
    30e4:	00800793          	li	a5,8
    30e8:	f8e7d0e3          	bge	a5,a4,3068 <main+0x3024>
    30ec:	f7842783          	lw	a5,-136(s0)
    30f0:	06400593          	li	a1,100
    30f4:	00078513          	mv	a0,a5
    30f8:	12c010ef          	jal	4224 <__modsi3>
    30fc:	00050793          	mv	a5,a0
    3100:	00078713          	mv	a4,a5
    3104:	f7c42783          	lw	a5,-132(s0)
    3108:	00f70733          	add	a4,a4,a5
    310c:	ffffe7b7          	lui	a5,0xffffe
    3110:	ff078793          	addi	a5,a5,-16 # ffffdff0 <__stack_top+0xffff5ff4>
    3114:	008787b3          	add	a5,a5,s0
    3118:	0ee7ac23          	sw	a4,248(a5)
    311c:	ffffe7b7          	lui	a5,0xffffe
    3120:	ff078793          	addi	a5,a5,-16 # ffffdff0 <__stack_top+0xffff5ff4>
    3124:	008787b3          	add	a5,a5,s0
    3128:	0f87a783          	lw	a5,248(a5)
    312c:	fec42703          	lw	a4,-20(s0)
    3130:	00f707b3          	add	a5,a4,a5
    3134:	fef42623          	sw	a5,-20(s0)
    3138:	f7c42783          	lw	a5,-132(s0)
    313c:	dcf42023          	sw	a5,-576(s0)
    3140:	f7842783          	lw	a5,-136(s0)
    3144:	dcf42223          	sw	a5,-572(s0)
    3148:	f8442783          	lw	a5,-124(s0)
    314c:	dcf42423          	sw	a5,-568(s0)
    3150:	ffffe7b7          	lui	a5,0xffffe
    3154:	ff078793          	addi	a5,a5,-16 # ffffdff0 <__stack_top+0xffff5ff4>
    3158:	008787b3          	add	a5,a5,s0
    315c:	0d07a783          	lw	a5,208(a5)
    3160:	dcf42623          	sw	a5,-564(s0)
    3164:	fe842783          	lw	a5,-24(s0)
    3168:	dcf42823          	sw	a5,-560(s0)
    316c:	fe042223          	sw	zero,-28(s0)
    3170:	0300006f          	j	31a0 <main+0x315c>
    3174:	ffffe7b7          	lui	a5,0xffffe
    3178:	ff078793          	addi	a5,a5,-16 # ffffdff0 <__stack_top+0xffff5ff4>
    317c:	00878733          	add	a4,a5,s0
    3180:	fe442783          	lw	a5,-28(s0)
    3184:	00279793          	slli	a5,a5,0x2
    3188:	00f707b3          	add	a5,a4,a5
    318c:	fff00713          	li	a4,-1
    3190:	2ce7a023          	sw	a4,704(a5)
    3194:	fe442783          	lw	a5,-28(s0)
    3198:	00178793          	addi	a5,a5,1
    319c:	fef42223          	sw	a5,-28(s0)
    31a0:	fe442703          	lw	a4,-28(s0)
    31a4:	01f00793          	li	a5,31
    31a8:	fce7d6e3          	bge	a5,a4,3174 <main+0x3130>
    31ac:	fe042223          	sw	zero,-28(s0)
    31b0:	02c0006f          	j	31dc <main+0x3198>
    31b4:	ffffe7b7          	lui	a5,0xffffe
    31b8:	ff078793          	addi	a5,a5,-16 # ffffdff0 <__stack_top+0xffff5ff4>
    31bc:	00878733          	add	a4,a5,s0
    31c0:	fe442783          	lw	a5,-28(s0)
    31c4:	00279793          	slli	a5,a5,0x2
    31c8:	00f707b3          	add	a5,a4,a5
    31cc:	2a07a023          	sw	zero,672(a5)
    31d0:	fe442783          	lw	a5,-28(s0)
    31d4:	00178793          	addi	a5,a5,1
    31d8:	fef42223          	sw	a5,-28(s0)
    31dc:	fe442703          	lw	a4,-28(s0)
    31e0:	00700793          	li	a5,7
    31e4:	fce7d8e3          	bge	a5,a4,31b4 <main+0x3170>
    31e8:	01f00793          	li	a5,31
    31ec:	f0f42823          	sw	a5,-240(s0)
    31f0:	3f100793          	li	a5,1009
    31f4:	f0f42623          	sw	a5,-244(s0)
    31f8:	fe042223          	sw	zero,-28(s0)
    31fc:	05c0006f          	j	3258 <main+0x3214>
    3200:	fe442703          	lw	a4,-28(s0)
    3204:	00070793          	mv	a5,a4
    3208:	00179793          	slli	a5,a5,0x1
    320c:	00e787b3          	add	a5,a5,a4
    3210:	00479793          	slli	a5,a5,0x4
    3214:	40e787b3          	sub	a5,a5,a4
    3218:	04978793          	addi	a5,a5,73
    321c:	1f400593          	li	a1,500
    3220:	00078513          	mv	a0,a5
    3224:	000010ef          	jal	4224 <__modsi3>
    3228:	00050793          	mv	a5,a0
    322c:	00078693          	mv	a3,a5
    3230:	ffffe7b7          	lui	a5,0xffffe
    3234:	ff078793          	addi	a5,a5,-16 # ffffdff0 <__stack_top+0xffff5ff4>
    3238:	00878733          	add	a4,a5,s0
    323c:	fe442783          	lw	a5,-28(s0)
    3240:	00279793          	slli	a5,a5,0x2
    3244:	00f707b3          	add	a5,a4,a5
    3248:	f8d7a423          	sw	a3,-120(a5)
    324c:	fe442783          	lw	a5,-28(s0)
    3250:	00178793          	addi	a5,a5,1
    3254:	fef42223          	sw	a5,-28(s0)
    3258:	fe442703          	lw	a4,-28(s0)
    325c:	00e00793          	li	a5,14
    3260:	fae7d0e3          	bge	a5,a4,3200 <main+0x31bc>
    3264:	fe042223          	sw	zero,-28(s0)
    3268:	3200006f          	j	3588 <main+0x3544>
    326c:	f6042a23          	sw	zero,-140(s0)
    3270:	ffffe7b7          	lui	a5,0xffffe
    3274:	ff078793          	addi	a5,a5,-16 # ffffdff0 <__stack_top+0xffff5ff4>
    3278:	00878733          	add	a4,a5,s0
    327c:	fe442783          	lw	a5,-28(s0)
    3280:	00279793          	slli	a5,a5,0x2
    3284:	00f707b3          	add	a5,a4,a5
    3288:	f887a783          	lw	a5,-120(a5)
    328c:	f6f42823          	sw	a5,-144(s0)
    3290:	00100793          	li	a5,1
    3294:	f6f42623          	sw	a5,-148(s0)
    3298:	0a80006f          	j	3340 <main+0x32fc>
    329c:	f7042783          	lw	a5,-144(s0)
    32a0:	00a00593          	li	a1,10
    32a4:	00078513          	mv	a0,a5
    32a8:	77d000ef          	jal	4224 <__modsi3>
    32ac:	00050793          	mv	a5,a0
    32b0:	f6c42583          	lw	a1,-148(s0)
    32b4:	00078513          	mv	a0,a5
    32b8:	6c5000ef          	jal	417c <__mulsi3>
    32bc:	00050793          	mv	a5,a0
    32c0:	00078713          	mv	a4,a5
    32c4:	f7442783          	lw	a5,-140(s0)
    32c8:	00f707b3          	add	a5,a4,a5
    32cc:	f0c42583          	lw	a1,-244(s0)
    32d0:	00078513          	mv	a0,a5
    32d4:	751000ef          	jal	4224 <__modsi3>
    32d8:	00050793          	mv	a5,a0
    32dc:	f6f42a23          	sw	a5,-140(s0)
    32e0:	f1042583          	lw	a1,-240(s0)
    32e4:	f6c42503          	lw	a0,-148(s0)
    32e8:	695000ef          	jal	417c <__mulsi3>
    32ec:	00050793          	mv	a5,a0
    32f0:	f0c42583          	lw	a1,-244(s0)
    32f4:	00078513          	mv	a0,a5
    32f8:	72d000ef          	jal	4224 <__modsi3>
    32fc:	00050793          	mv	a5,a0
    3300:	f6f42623          	sw	a5,-148(s0)
    3304:	f7042783          	lw	a5,-144(s0)
    3308:	00a00593          	li	a1,10
    330c:	00078513          	mv	a0,a5
    3310:	691000ef          	jal	41a0 <__divsi3>
    3314:	00050793          	mv	a5,a0
    3318:	f6f42823          	sw	a5,-144(s0)
    331c:	ffffe7b7          	lui	a5,0xffffe
    3320:	ff078793          	addi	a5,a5,-16 # ffffdff0 <__stack_top+0xffff5ff4>
    3324:	008787b3          	add	a5,a5,s0
    3328:	0ac7a783          	lw	a5,172(a5)
    332c:	00178713          	addi	a4,a5,1
    3330:	ffffe7b7          	lui	a5,0xffffe
    3334:	ff078793          	addi	a5,a5,-16 # ffffdff0 <__stack_top+0xffff5ff4>
    3338:	008787b3          	add	a5,a5,s0
    333c:	0ae7a623          	sw	a4,172(a5)
    3340:	f7042783          	lw	a5,-144(s0)
    3344:	f4f04ce3          	bgtz	a5,329c <main+0x3258>
    3348:	ffffe7b7          	lui	a5,0xffffe
    334c:	ff078793          	addi	a5,a5,-16 # ffffdff0 <__stack_top+0xffff5ff4>
    3350:	00878733          	add	a4,a5,s0
    3354:	fe442783          	lw	a5,-28(s0)
    3358:	00279793          	slli	a5,a5,0x2
    335c:	00f707b3          	add	a5,a4,a5
    3360:	f7442703          	lw	a4,-140(s0)
    3364:	22e7ae23          	sw	a4,572(a5)
    3368:	f7442703          	lw	a4,-140(s0)
    336c:	41f75793          	srai	a5,a4,0x1f
    3370:	01b7d793          	srli	a5,a5,0x1b
    3374:	00f70733          	add	a4,a4,a5
    3378:	01f77713          	andi	a4,a4,31
    337c:	40f707b3          	sub	a5,a4,a5
    3380:	f6f42423          	sw	a5,-152(s0)
    3384:	00100793          	li	a5,1
    3388:	f6f42223          	sw	a5,-156(s0)
    338c:	0640006f          	j	33f0 <main+0x33ac>
    3390:	f6442583          	lw	a1,-156(s0)
    3394:	f6442503          	lw	a0,-156(s0)
    3398:	5e5000ef          	jal	417c <__mulsi3>
    339c:	00050793          	mv	a5,a0
    33a0:	00078713          	mv	a4,a5
    33a4:	f6842783          	lw	a5,-152(s0)
    33a8:	00f70733          	add	a4,a4,a5
    33ac:	41f75793          	srai	a5,a4,0x1f
    33b0:	01b7d793          	srli	a5,a5,0x1b
    33b4:	00f70733          	add	a4,a4,a5
    33b8:	01f77713          	andi	a4,a4,31
    33bc:	40f707b3          	sub	a5,a4,a5
    33c0:	f6f42423          	sw	a5,-152(s0)
    33c4:	f6442783          	lw	a5,-156(s0)
    33c8:	00178793          	addi	a5,a5,1
    33cc:	f6f42223          	sw	a5,-156(s0)
    33d0:	fe842703          	lw	a4,-24(s0)
    33d4:	f6442783          	lw	a5,-156(s0)
    33d8:	00f707b3          	add	a5,a4,a5
    33dc:	10f00593          	li	a1,271
    33e0:	00078513          	mv	a0,a5
    33e4:	641000ef          	jal	4224 <__modsi3>
    33e8:	00050793          	mv	a5,a0
    33ec:	fef42423          	sw	a5,-24(s0)
    33f0:	ffffe7b7          	lui	a5,0xffffe
    33f4:	ff078793          	addi	a5,a5,-16 # ffffdff0 <__stack_top+0xffff5ff4>
    33f8:	00878733          	add	a4,a5,s0
    33fc:	f6842783          	lw	a5,-152(s0)
    3400:	00279793          	slli	a5,a5,0x2
    3404:	00f707b3          	add	a5,a4,a5
    3408:	2c07a703          	lw	a4,704(a5)
    340c:	fff00793          	li	a5,-1
    3410:	00f70863          	beq	a4,a5,3420 <main+0x33dc>
    3414:	f6442703          	lw	a4,-156(s0)
    3418:	01f00793          	li	a5,31
    341c:	f6e7dae3          	bge	a5,a4,3390 <main+0x334c>
    3420:	ffffe7b7          	lui	a5,0xffffe
    3424:	ff078793          	addi	a5,a5,-16 # ffffdff0 <__stack_top+0xffff5ff4>
    3428:	00878733          	add	a4,a5,s0
    342c:	f6842783          	lw	a5,-152(s0)
    3430:	00279793          	slli	a5,a5,0x2
    3434:	00f707b3          	add	a5,a4,a5
    3438:	2c07a703          	lw	a4,704(a5)
    343c:	fff00793          	li	a5,-1
    3440:	02f71e63          	bne	a4,a5,347c <main+0x3438>
    3444:	ffffe7b7          	lui	a5,0xffffe
    3448:	ff078793          	addi	a5,a5,-16 # ffffdff0 <__stack_top+0xffff5ff4>
    344c:	00878733          	add	a4,a5,s0
    3450:	fe442783          	lw	a5,-28(s0)
    3454:	00279793          	slli	a5,a5,0x2
    3458:	00f707b3          	add	a5,a4,a5
    345c:	f887a703          	lw	a4,-120(a5)
    3460:	ffffe7b7          	lui	a5,0xffffe
    3464:	ff078793          	addi	a5,a5,-16 # ffffdff0 <__stack_top+0xffff5ff4>
    3468:	008786b3          	add	a3,a5,s0
    346c:	f6842783          	lw	a5,-152(s0)
    3470:	00279793          	slli	a5,a5,0x2
    3474:	00f687b3          	add	a5,a3,a5
    3478:	2ce7a023          	sw	a4,704(a5)
    347c:	f7442703          	lw	a4,-140(s0)
    3480:	41f75793          	srai	a5,a4,0x1f
    3484:	01a7d793          	srli	a5,a5,0x1a
    3488:	00f70733          	add	a4,a4,a5
    348c:	03f77713          	andi	a4,a4,63
    3490:	40f707b3          	sub	a5,a4,a5
    3494:	ecf42a23          	sw	a5,-300(s0)
    3498:	f7442703          	lw	a4,-140(s0)
    349c:	00070793          	mv	a5,a4
    34a0:	00479793          	slli	a5,a5,0x4
    34a4:	00e787b3          	add	a5,a5,a4
    34a8:	01778713          	addi	a4,a5,23
    34ac:	41f75793          	srai	a5,a4,0x1f
    34b0:	01a7d793          	srli	a5,a5,0x1a
    34b4:	00f70733          	add	a4,a4,a5
    34b8:	03f77713          	andi	a4,a4,63
    34bc:	40f707b3          	sub	a5,a4,a5
    34c0:	ecf42823          	sw	a5,-304(s0)
    34c4:	ed442783          	lw	a5,-300(s0)
    34c8:	41f7d713          	srai	a4,a5,0x1f
    34cc:	00777713          	andi	a4,a4,7
    34d0:	00f707b3          	add	a5,a4,a5
    34d4:	4037d793          	srai	a5,a5,0x3
    34d8:	00078713          	mv	a4,a5
    34dc:	ffffe7b7          	lui	a5,0xffffe
    34e0:	ff078793          	addi	a5,a5,-16 # ffffdff0 <__stack_top+0xffff5ff4>
    34e4:	008786b3          	add	a3,a5,s0
    34e8:	00271793          	slli	a5,a4,0x2
    34ec:	00f687b3          	add	a5,a3,a5
    34f0:	2a07a683          	lw	a3,672(a5)
    34f4:	ed442783          	lw	a5,-300(s0)
    34f8:	0077f793          	andi	a5,a5,7
    34fc:	00100613          	li	a2,1
    3500:	00f617b3          	sll	a5,a2,a5
    3504:	00f6e6b3          	or	a3,a3,a5
    3508:	ffffe7b7          	lui	a5,0xffffe
    350c:	ff078793          	addi	a5,a5,-16 # ffffdff0 <__stack_top+0xffff5ff4>
    3510:	00878633          	add	a2,a5,s0
    3514:	00271793          	slli	a5,a4,0x2
    3518:	00f607b3          	add	a5,a2,a5
    351c:	2ad7a023          	sw	a3,672(a5)
    3520:	ed042783          	lw	a5,-304(s0)
    3524:	41f7d713          	srai	a4,a5,0x1f
    3528:	00777713          	andi	a4,a4,7
    352c:	00f707b3          	add	a5,a4,a5
    3530:	4037d793          	srai	a5,a5,0x3
    3534:	00078713          	mv	a4,a5
    3538:	ffffe7b7          	lui	a5,0xffffe
    353c:	ff078793          	addi	a5,a5,-16 # ffffdff0 <__stack_top+0xffff5ff4>
    3540:	008786b3          	add	a3,a5,s0
    3544:	00271793          	slli	a5,a4,0x2
    3548:	00f687b3          	add	a5,a3,a5
    354c:	2a07a683          	lw	a3,672(a5)
    3550:	ed042783          	lw	a5,-304(s0)
    3554:	0077f793          	andi	a5,a5,7
    3558:	00100613          	li	a2,1
    355c:	00f617b3          	sll	a5,a2,a5
    3560:	00f6e6b3          	or	a3,a3,a5
    3564:	ffffe7b7          	lui	a5,0xffffe
    3568:	ff078793          	addi	a5,a5,-16 # ffffdff0 <__stack_top+0xffff5ff4>
    356c:	00878633          	add	a2,a5,s0
    3570:	00271793          	slli	a5,a4,0x2
    3574:	00f607b3          	add	a5,a2,a5
    3578:	2ad7a023          	sw	a3,672(a5)
    357c:	fe442783          	lw	a5,-28(s0)
    3580:	00178793          	addi	a5,a5,1
    3584:	fef42223          	sw	a5,-28(s0)
    3588:	fe442703          	lw	a4,-28(s0)
    358c:	00e00793          	li	a5,14
    3590:	cce7dee3          	bge	a5,a4,326c <main+0x3228>
    3594:	00a00793          	li	a5,10
    3598:	f0f42423          	sw	a5,-248(s0)
    359c:	f6042023          	sw	zero,-160(s0)
    35a0:	fe042223          	sw	zero,-28(s0)
    35a4:	1fc0006f          	j	37a0 <main+0x375c>
    35a8:	fe442703          	lw	a4,-28(s0)
    35ac:	00070793          	mv	a5,a4
    35b0:	00279793          	slli	a5,a5,0x2
    35b4:	00e787b3          	add	a5,a5,a4
    35b8:	00279793          	slli	a5,a5,0x2
    35bc:	00e787b3          	add	a5,a5,a4
    35c0:	00279793          	slli	a5,a5,0x2
    35c4:	40e787b3          	sub	a5,a5,a4
    35c8:	06178793          	addi	a5,a5,97
    35cc:	1f400593          	li	a1,500
    35d0:	00078513          	mv	a0,a5
    35d4:	451000ef          	jal	4224 <__modsi3>
    35d8:	00050793          	mv	a5,a0
    35dc:	eef42423          	sw	a5,-280(s0)
    35e0:	f4042e23          	sw	zero,-164(s0)
    35e4:	ee842783          	lw	a5,-280(s0)
    35e8:	f4f42c23          	sw	a5,-168(s0)
    35ec:	00100793          	li	a5,1
    35f0:	f4f42a23          	sw	a5,-172(s0)
    35f4:	0840006f          	j	3678 <main+0x3634>
    35f8:	f5842783          	lw	a5,-168(s0)
    35fc:	00a00593          	li	a1,10
    3600:	00078513          	mv	a0,a5
    3604:	421000ef          	jal	4224 <__modsi3>
    3608:	00050793          	mv	a5,a0
    360c:	f5442583          	lw	a1,-172(s0)
    3610:	00078513          	mv	a0,a5
    3614:	369000ef          	jal	417c <__mulsi3>
    3618:	00050793          	mv	a5,a0
    361c:	00078713          	mv	a4,a5
    3620:	f5c42783          	lw	a5,-164(s0)
    3624:	00f707b3          	add	a5,a4,a5
    3628:	f0c42583          	lw	a1,-244(s0)
    362c:	00078513          	mv	a0,a5
    3630:	3f5000ef          	jal	4224 <__modsi3>
    3634:	00050793          	mv	a5,a0
    3638:	f4f42e23          	sw	a5,-164(s0)
    363c:	f1042583          	lw	a1,-240(s0)
    3640:	f5442503          	lw	a0,-172(s0)
    3644:	339000ef          	jal	417c <__mulsi3>
    3648:	00050793          	mv	a5,a0
    364c:	f0c42583          	lw	a1,-244(s0)
    3650:	00078513          	mv	a0,a5
    3654:	3d1000ef          	jal	4224 <__modsi3>
    3658:	00050793          	mv	a5,a0
    365c:	f4f42a23          	sw	a5,-172(s0)
    3660:	f5842783          	lw	a5,-168(s0)
    3664:	00a00593          	li	a1,10
    3668:	00078513          	mv	a0,a5
    366c:	335000ef          	jal	41a0 <__divsi3>
    3670:	00050793          	mv	a5,a0
    3674:	f4f42c23          	sw	a5,-168(s0)
    3678:	f5842783          	lw	a5,-168(s0)
    367c:	f6f04ee3          	bgtz	a5,35f8 <main+0x35b4>
    3680:	f5c42703          	lw	a4,-164(s0)
    3684:	41f75793          	srai	a5,a4,0x1f
    3688:	01a7d793          	srli	a5,a5,0x1a
    368c:	00f70733          	add	a4,a4,a5
    3690:	03f77713          	andi	a4,a4,63
    3694:	40f707b3          	sub	a5,a4,a5
    3698:	eef42223          	sw	a5,-284(s0)
    369c:	f5c42703          	lw	a4,-164(s0)
    36a0:	00070793          	mv	a5,a4
    36a4:	00479793          	slli	a5,a5,0x4
    36a8:	00e787b3          	add	a5,a5,a4
    36ac:	01778713          	addi	a4,a5,23
    36b0:	41f75793          	srai	a5,a4,0x1f
    36b4:	01a7d793          	srli	a5,a5,0x1a
    36b8:	00f70733          	add	a4,a4,a5
    36bc:	03f77713          	andi	a4,a4,63
    36c0:	40f707b3          	sub	a5,a4,a5
    36c4:	eef42023          	sw	a5,-288(s0)
    36c8:	ee442783          	lw	a5,-284(s0)
    36cc:	41f7d713          	srai	a4,a5,0x1f
    36d0:	00777713          	andi	a4,a4,7
    36d4:	00f707b3          	add	a5,a4,a5
    36d8:	4037d793          	srai	a5,a5,0x3
    36dc:	00078693          	mv	a3,a5
    36e0:	ffffe7b7          	lui	a5,0xffffe
    36e4:	ff078793          	addi	a5,a5,-16 # ffffdff0 <__stack_top+0xffff5ff4>
    36e8:	00878733          	add	a4,a5,s0
    36ec:	00269793          	slli	a5,a3,0x2
    36f0:	00f707b3          	add	a5,a4,a5
    36f4:	2a07a703          	lw	a4,672(a5)
    36f8:	ee442783          	lw	a5,-284(s0)
    36fc:	0077f793          	andi	a5,a5,7
    3700:	00100693          	li	a3,1
    3704:	00f697b3          	sll	a5,a3,a5
    3708:	00f777b3          	and	a5,a4,a5
    370c:	ecf42e23          	sw	a5,-292(s0)
    3710:	ee042783          	lw	a5,-288(s0)
    3714:	41f7d713          	srai	a4,a5,0x1f
    3718:	00777713          	andi	a4,a4,7
    371c:	00f707b3          	add	a5,a4,a5
    3720:	4037d793          	srai	a5,a5,0x3
    3724:	00078693          	mv	a3,a5
    3728:	ffffe7b7          	lui	a5,0xffffe
    372c:	ff078793          	addi	a5,a5,-16 # ffffdff0 <__stack_top+0xffff5ff4>
    3730:	00878733          	add	a4,a5,s0
    3734:	00269793          	slli	a5,a3,0x2
    3738:	00f707b3          	add	a5,a4,a5
    373c:	2a07a703          	lw	a4,672(a5)
    3740:	ee042783          	lw	a5,-288(s0)
    3744:	0077f793          	andi	a5,a5,7
    3748:	00100693          	li	a3,1
    374c:	00f697b3          	sll	a5,a3,a5
    3750:	00f777b3          	and	a5,a4,a5
    3754:	ecf42c23          	sw	a5,-296(s0)
    3758:	edc42783          	lw	a5,-292(s0)
    375c:	00078c63          	beqz	a5,3774 <main+0x3730>
    3760:	ed842783          	lw	a5,-296(s0)
    3764:	00078863          	beqz	a5,3774 <main+0x3730>
    3768:	f6042783          	lw	a5,-160(s0)
    376c:	00178793          	addi	a5,a5,1
    3770:	f6f42023          	sw	a5,-160(s0)
    3774:	fe842703          	lw	a4,-24(s0)
    3778:	f6042783          	lw	a5,-160(s0)
    377c:	00f707b3          	add	a5,a4,a5
    3780:	10d00593          	li	a1,269
    3784:	00078513          	mv	a0,a5
    3788:	29d000ef          	jal	4224 <__modsi3>
    378c:	00050793          	mv	a5,a0
    3790:	fef42423          	sw	a5,-24(s0)
    3794:	fe442783          	lw	a5,-28(s0)
    3798:	00178793          	addi	a5,a5,1
    379c:	fef42223          	sw	a5,-28(s0)
    37a0:	fe442703          	lw	a4,-28(s0)
    37a4:	f0842783          	lw	a5,-248(s0)
    37a8:	e0f740e3          	blt	a4,a5,35a8 <main+0x3564>
    37ac:	ffffe7b7          	lui	a5,0xffffe
    37b0:	ff078793          	addi	a5,a5,-16 # ffffdff0 <__stack_top+0xffff5ff4>
    37b4:	008787b3          	add	a5,a5,s0
    37b8:	f6042703          	lw	a4,-160(s0)
    37bc:	0ee7ae23          	sw	a4,252(a5)
    37c0:	ffffe7b7          	lui	a5,0xffffe
    37c4:	ff078793          	addi	a5,a5,-16 # ffffdff0 <__stack_top+0xffff5ff4>
    37c8:	008787b3          	add	a5,a5,s0
    37cc:	0fc7a703          	lw	a4,252(a5)
    37d0:	00070793          	mv	a5,a4
    37d4:	00379793          	slli	a5,a5,0x3
    37d8:	40e787b3          	sub	a5,a5,a4
    37dc:	fec42703          	lw	a4,-20(s0)
    37e0:	00f707b3          	add	a5,a4,a5
    37e4:	fef42623          	sw	a5,-20(s0)
    37e8:	f6042783          	lw	a5,-160(s0)
    37ec:	dcf42a23          	sw	a5,-556(s0)
    37f0:	ffffe7b7          	lui	a5,0xffffe
    37f4:	ff078793          	addi	a5,a5,-16 # ffffdff0 <__stack_top+0xffff5ff4>
    37f8:	008787b3          	add	a5,a5,s0
    37fc:	2587a783          	lw	a5,600(a5)
    3800:	dcf42c23          	sw	a5,-552(s0)
    3804:	ffffe7b7          	lui	a5,0xffffe
    3808:	ff078793          	addi	a5,a5,-16 # ffffdff0 <__stack_top+0xffff5ff4>
    380c:	008787b3          	add	a5,a5,s0
    3810:	2e87a783          	lw	a5,744(a5)
    3814:	dcf42e23          	sw	a5,-548(s0)
    3818:	ffffe7b7          	lui	a5,0xffffe
    381c:	ff078793          	addi	a5,a5,-16 # ffffdff0 <__stack_top+0xffff5ff4>
    3820:	008787b3          	add	a5,a5,s0
    3824:	2ac7a783          	lw	a5,684(a5)
    3828:	def42023          	sw	a5,-544(s0)
    382c:	fe842783          	lw	a5,-24(s0)
    3830:	def42223          	sw	a5,-540(s0)
    3834:	42f00793          	li	a5,1071
    3838:	f4f42823          	sw	a5,-176(s0)
    383c:	1ce00793          	li	a5,462
    3840:	f4f42623          	sw	a5,-180(s0)
    3844:	f4042423          	sw	zero,-184(s0)
    3848:	0a80006f          	j	38f0 <main+0x38ac>
    384c:	f5042783          	lw	a5,-176(s0)
    3850:	f4c42583          	lw	a1,-180(s0)
    3854:	00078513          	mv	a0,a5
    3858:	1cd000ef          	jal	4224 <__modsi3>
    385c:	00050793          	mv	a5,a0
    3860:	00078693          	mv	a3,a5
    3864:	ffffe7b7          	lui	a5,0xffffe
    3868:	ff078793          	addi	a5,a5,-16 # ffffdff0 <__stack_top+0xffff5ff4>
    386c:	00878733          	add	a4,a5,s0
    3870:	f4842783          	lw	a5,-184(s0)
    3874:	00279793          	slli	a5,a5,0x2
    3878:	00f707b3          	add	a5,a4,a5
    387c:	46d7a823          	sw	a3,1136(a5)
    3880:	f4c42783          	lw	a5,-180(s0)
    3884:	f0f42223          	sw	a5,-252(s0)
    3888:	f5042783          	lw	a5,-176(s0)
    388c:	f4c42583          	lw	a1,-180(s0)
    3890:	00078513          	mv	a0,a5
    3894:	191000ef          	jal	4224 <__modsi3>
    3898:	00050793          	mv	a5,a0
    389c:	f4f42623          	sw	a5,-180(s0)
    38a0:	f0442783          	lw	a5,-252(s0)
    38a4:	f4f42823          	sw	a5,-176(s0)
    38a8:	f4842783          	lw	a5,-184(s0)
    38ac:	00178793          	addi	a5,a5,1
    38b0:	f4f42423          	sw	a5,-184(s0)
    38b4:	f4842783          	lw	a5,-184(s0)
    38b8:	fff78793          	addi	a5,a5,-1
    38bc:	ffffe737          	lui	a4,0xffffe
    38c0:	ff070713          	addi	a4,a4,-16 # ffffdff0 <__stack_top+0xffff5ff4>
    38c4:	00870733          	add	a4,a4,s0
    38c8:	00279793          	slli	a5,a5,0x2
    38cc:	00f707b3          	add	a5,a4,a5
    38d0:	4707a703          	lw	a4,1136(a5)
    38d4:	fe842783          	lw	a5,-24(s0)
    38d8:	00f707b3          	add	a5,a4,a5
    38dc:	10700593          	li	a1,263
    38e0:	00078513          	mv	a0,a5
    38e4:	141000ef          	jal	4224 <__modsi3>
    38e8:	00050793          	mv	a5,a0
    38ec:	fef42423          	sw	a5,-24(s0)
    38f0:	f4c42783          	lw	a5,-180(s0)
    38f4:	00078863          	beqz	a5,3904 <main+0x38c0>
    38f8:	f4842703          	lw	a4,-184(s0)
    38fc:	00e00793          	li	a5,14
    3900:	f4e7d6e3          	bge	a5,a4,384c <main+0x3808>
    3904:	f5042783          	lw	a5,-176(s0)
    3908:	f0f42023          	sw	a5,-256(s0)
    390c:	01100793          	li	a5,17
    3910:	f4f42223          	sw	a5,-188(s0)
    3914:	00d00793          	li	a5,13
    3918:	f4f42023          	sw	a5,-192(s0)
    391c:	3f100793          	li	a5,1009
    3920:	eef42e23          	sw	a5,-260(s0)
    3924:	00100793          	li	a5,1
    3928:	f2f42e23          	sw	a5,-196(s0)
    392c:	fe042223          	sw	zero,-28(s0)
    3930:	02c0006f          	j	395c <main+0x3918>
    3934:	ffffe7b7          	lui	a5,0xffffe
    3938:	ff078793          	addi	a5,a5,-16 # ffffdff0 <__stack_top+0xffff5ff4>
    393c:	00878733          	add	a4,a5,s0
    3940:	fe442783          	lw	a5,-28(s0)
    3944:	00279793          	slli	a5,a5,0x2
    3948:	00f707b3          	add	a5,a4,a5
    394c:	4407a423          	sw	zero,1096(a5)
    3950:	fe442783          	lw	a5,-28(s0)
    3954:	00178793          	addi	a5,a5,1
    3958:	fef42223          	sw	a5,-28(s0)
    395c:	fe442703          	lw	a4,-28(s0)
    3960:	00900793          	li	a5,9
    3964:	fce7d8e3          	bge	a5,a4,3934 <main+0x38f0>
    3968:	f2042c23          	sw	zero,-200(s0)
    396c:	0b00006f          	j	3a1c <main+0x39d8>
    3970:	f4042783          	lw	a5,-192(s0)
    3974:	0017f793          	andi	a5,a5,1
    3978:	04078a63          	beqz	a5,39cc <main+0x3988>
    397c:	f4442583          	lw	a1,-188(s0)
    3980:	f3c42503          	lw	a0,-196(s0)
    3984:	7f8000ef          	jal	417c <__mulsi3>
    3988:	00050793          	mv	a5,a0
    398c:	efc42583          	lw	a1,-260(s0)
    3990:	00078513          	mv	a0,a5
    3994:	091000ef          	jal	4224 <__modsi3>
    3998:	00050793          	mv	a5,a0
    399c:	f2f42e23          	sw	a5,-196(s0)
    39a0:	ffffe7b7          	lui	a5,0xffffe
    39a4:	ff078793          	addi	a5,a5,-16 # ffffdff0 <__stack_top+0xffff5ff4>
    39a8:	00878733          	add	a4,a5,s0
    39ac:	f3842783          	lw	a5,-200(s0)
    39b0:	00279793          	slli	a5,a5,0x2
    39b4:	00f707b3          	add	a5,a4,a5
    39b8:	f3c42703          	lw	a4,-196(s0)
    39bc:	44e7a423          	sw	a4,1096(a5)
    39c0:	f3842783          	lw	a5,-200(s0)
    39c4:	00178793          	addi	a5,a5,1
    39c8:	f2f42c23          	sw	a5,-200(s0)
    39cc:	f4442583          	lw	a1,-188(s0)
    39d0:	f4442503          	lw	a0,-188(s0)
    39d4:	7a8000ef          	jal	417c <__mulsi3>
    39d8:	00050793          	mv	a5,a0
    39dc:	efc42583          	lw	a1,-260(s0)
    39e0:	00078513          	mv	a0,a5
    39e4:	041000ef          	jal	4224 <__modsi3>
    39e8:	00050793          	mv	a5,a0
    39ec:	f4f42223          	sw	a5,-188(s0)
    39f0:	f4042783          	lw	a5,-192(s0)
    39f4:	4017d793          	srai	a5,a5,0x1
    39f8:	f4f42023          	sw	a5,-192(s0)
    39fc:	fe842703          	lw	a4,-24(s0)
    3a00:	f3c42783          	lw	a5,-196(s0)
    3a04:	00f707b3          	add	a5,a4,a5
    3a08:	10100593          	li	a1,257
    3a0c:	00078513          	mv	a0,a5
    3a10:	015000ef          	jal	4224 <__modsi3>
    3a14:	00050793          	mv	a5,a0
    3a18:	fef42423          	sw	a5,-24(s0)
    3a1c:	f4042783          	lw	a5,-192(s0)
    3a20:	00f05863          	blez	a5,3a30 <main+0x39ec>
    3a24:	f3842703          	lw	a4,-200(s0)
    3a28:	00900793          	li	a5,9
    3a2c:	f4e7d2e3          	bge	a5,a4,3970 <main+0x392c>
    3a30:	000037b7          	lui	a5,0x3
    3a34:	03978793          	addi	a5,a5,57 # 3039 <main+0x2ff5>
    3a38:	f2f42a23          	sw	a5,-204(s0)
    3a3c:	001967b7          	lui	a5,0x196
    3a40:	60d78793          	addi	a5,a5,1549 # 19660d <__stack_top+0x18e611>
    3a44:	eef42c23          	sw	a5,-264(s0)
    3a48:	3c6ef7b7          	lui	a5,0x3c6ef
    3a4c:	35f78793          	addi	a5,a5,863 # 3c6ef35f <__stack_top+0x3c6e7363>
    3a50:	eef42a23          	sw	a5,-268(s0)
    3a54:	800007b7          	lui	a5,0x80000
    3a58:	fff78793          	addi	a5,a5,-1 # 7fffffff <__stack_top+0x7fff8003>
    3a5c:	eef42823          	sw	a5,-272(s0)
    3a60:	fe042223          	sw	zero,-28(s0)
    3a64:	0ac0006f          	j	3b10 <main+0x3acc>
    3a68:	ef842583          	lw	a1,-264(s0)
    3a6c:	f3442503          	lw	a0,-204(s0)
    3a70:	70c000ef          	jal	417c <__mulsi3>
    3a74:	00050793          	mv	a5,a0
    3a78:	00078713          	mv	a4,a5
    3a7c:	ef442783          	lw	a5,-268(s0)
    3a80:	00f707b3          	add	a5,a4,a5
    3a84:	ef042583          	lw	a1,-272(s0)
    3a88:	00078513          	mv	a0,a5
    3a8c:	798000ef          	jal	4224 <__modsi3>
    3a90:	00050793          	mv	a5,a0
    3a94:	f2f42a23          	sw	a5,-204(s0)
    3a98:	f3442783          	lw	a5,-204(s0)
    3a9c:	3e800593          	li	a1,1000
    3aa0:	00078513          	mv	a0,a5
    3aa4:	780000ef          	jal	4224 <__modsi3>
    3aa8:	00050793          	mv	a5,a0
    3aac:	00078693          	mv	a3,a5
    3ab0:	ffffe7b7          	lui	a5,0xffffe
    3ab4:	ff078793          	addi	a5,a5,-16 # ffffdff0 <__stack_top+0xffff5ff4>
    3ab8:	00878733          	add	a4,a5,s0
    3abc:	fe442783          	lw	a5,-28(s0)
    3ac0:	00279793          	slli	a5,a5,0x2
    3ac4:	00f707b3          	add	a5,a4,a5
    3ac8:	26d7ac23          	sw	a3,632(a5)
    3acc:	ffffe7b7          	lui	a5,0xffffe
    3ad0:	ff078793          	addi	a5,a5,-16 # ffffdff0 <__stack_top+0xffff5ff4>
    3ad4:	00878733          	add	a4,a5,s0
    3ad8:	fe442783          	lw	a5,-28(s0)
    3adc:	00279793          	slli	a5,a5,0x2
    3ae0:	00f707b3          	add	a5,a4,a5
    3ae4:	2787a703          	lw	a4,632(a5)
    3ae8:	fe842783          	lw	a5,-24(s0)
    3aec:	00f707b3          	add	a5,a4,a5
    3af0:	0fb00593          	li	a1,251
    3af4:	00078513          	mv	a0,a5
    3af8:	72c000ef          	jal	4224 <__modsi3>
    3afc:	00050793          	mv	a5,a0
    3b00:	fef42423          	sw	a5,-24(s0)
    3b04:	fe442783          	lw	a5,-28(s0)
    3b08:	00178793          	addi	a5,a5,1
    3b0c:	fef42223          	sw	a5,-28(s0)
    3b10:	fe442703          	lw	a4,-28(s0)
    3b14:	00900793          	li	a5,9
    3b18:	f4e7d8e3          	bge	a5,a4,3a68 <main+0x3a24>
    3b1c:	f3c42783          	lw	a5,-196(s0)
    3b20:	06400593          	li	a1,100
    3b24:	00078513          	mv	a0,a5
    3b28:	6fc000ef          	jal	4224 <__modsi3>
    3b2c:	00050793          	mv	a5,a0
    3b30:	00078713          	mv	a4,a5
    3b34:	f0042783          	lw	a5,-256(s0)
    3b38:	00f70733          	add	a4,a4,a5
    3b3c:	ffffe7b7          	lui	a5,0xffffe
    3b40:	ff078793          	addi	a5,a5,-16 # ffffdff0 <__stack_top+0xffff5ff4>
    3b44:	008787b3          	add	a5,a5,s0
    3b48:	10e7a023          	sw	a4,256(a5)
    3b4c:	ffffe7b7          	lui	a5,0xffffe
    3b50:	ff078793          	addi	a5,a5,-16 # ffffdff0 <__stack_top+0xffff5ff4>
    3b54:	008787b3          	add	a5,a5,s0
    3b58:	1007a783          	lw	a5,256(a5)
    3b5c:	fec42703          	lw	a4,-20(s0)
    3b60:	00f707b3          	add	a5,a4,a5
    3b64:	fef42623          	sw	a5,-20(s0)
    3b68:	f0042783          	lw	a5,-256(s0)
    3b6c:	def42423          	sw	a5,-536(s0)
    3b70:	f3c42783          	lw	a5,-196(s0)
    3b74:	def42623          	sw	a5,-532(s0)
    3b78:	ffffe7b7          	lui	a5,0xffffe
    3b7c:	ff078793          	addi	a5,a5,-16 # ffffdff0 <__stack_top+0xffff5ff4>
    3b80:	008787b3          	add	a5,a5,s0
    3b84:	28c7a783          	lw	a5,652(a5)
    3b88:	def42823          	sw	a5,-528(s0)
    3b8c:	f4842783          	lw	a5,-184(s0)
    3b90:	def42a23          	sw	a5,-524(s0)
    3b94:	fe842783          	lw	a5,-24(s0)
    3b98:	def42c23          	sw	a5,-520(s0)
    3b9c:	f2042823          	sw	zero,-208(s0)
    3ba0:	fe042223          	sw	zero,-28(s0)
    3ba4:	1200006f          	j	3cc4 <main+0x3c80>
    3ba8:	ffffe7b7          	lui	a5,0xffffe
    3bac:	ff078793          	addi	a5,a5,-16 # ffffdff0 <__stack_top+0xffff5ff4>
    3bb0:	00878733          	add	a4,a5,s0
    3bb4:	fe442783          	lw	a5,-28(s0)
    3bb8:	00279793          	slli	a5,a5,0x2
    3bbc:	00f707b3          	add	a5,a4,a5
    3bc0:	0d47a703          	lw	a4,212(a5)
    3bc4:	fe442783          	lw	a5,-28(s0)
    3bc8:	00178793          	addi	a5,a5,1
    3bcc:	00078593          	mv	a1,a5
    3bd0:	00070513          	mv	a0,a4
    3bd4:	5a8000ef          	jal	417c <__mulsi3>
    3bd8:	00050793          	mv	a5,a0
    3bdc:	eef42623          	sw	a5,-276(s0)
    3be0:	f3042703          	lw	a4,-208(s0)
    3be4:	eec42783          	lw	a5,-276(s0)
    3be8:	00f707b3          	add	a5,a4,a5
    3bec:	f2f42823          	sw	a5,-208(s0)
    3bf0:	eec42783          	lw	a5,-276(s0)
    3bf4:	00300593          	li	a1,3
    3bf8:	00078513          	mv	a0,a5
    3bfc:	628000ef          	jal	4224 <__modsi3>
    3c00:	00050793          	mv	a5,a0
    3c04:	02079863          	bnez	a5,3c34 <main+0x3bf0>
    3c08:	f3042703          	lw	a4,-208(s0)
    3c0c:	00070793          	mv	a5,a4
    3c10:	00379793          	slli	a5,a5,0x3
    3c14:	40e78733          	sub	a4,a5,a4
    3c18:	41f75793          	srai	a5,a4,0x1f
    3c1c:	0157d793          	srli	a5,a5,0x15
    3c20:	00f70733          	add	a4,a4,a5
    3c24:	7ff77713          	andi	a4,a4,2047
    3c28:	40f707b3          	sub	a5,a4,a5
    3c2c:	f2f42823          	sw	a5,-208(s0)
    3c30:	0680006f          	j	3c98 <main+0x3c54>
    3c34:	eec42783          	lw	a5,-276(s0)
    3c38:	00300593          	li	a1,3
    3c3c:	00078513          	mv	a0,a5
    3c40:	5e4000ef          	jal	4224 <__modsi3>
    3c44:	00050793          	mv	a5,a0
    3c48:	00078713          	mv	a4,a5
    3c4c:	00100793          	li	a5,1
    3c50:	02f71463          	bne	a4,a5,3c78 <main+0x3c34>
    3c54:	f3042783          	lw	a5,-208(s0)
    3c58:	09d78713          	addi	a4,a5,157
    3c5c:	41f75793          	srai	a5,a4,0x1f
    3c60:	0157d793          	srli	a5,a5,0x15
    3c64:	00f70733          	add	a4,a4,a5
    3c68:	7ff77713          	andi	a4,a4,2047
    3c6c:	40f707b3          	sub	a5,a4,a5
    3c70:	f2f42823          	sw	a5,-208(s0)
    3c74:	0240006f          	j	3c98 <main+0x3c54>
    3c78:	f3042783          	lw	a5,-208(s0)
    3c7c:	0557c713          	xori	a4,a5,85
    3c80:	41f75793          	srai	a5,a4,0x1f
    3c84:	0157d793          	srli	a5,a5,0x15
    3c88:	00f70733          	add	a4,a4,a5
    3c8c:	7ff77713          	andi	a4,a4,2047
    3c90:	40f707b3          	sub	a5,a4,a5
    3c94:	f2f42823          	sw	a5,-208(s0)
    3c98:	fe842703          	lw	a4,-24(s0)
    3c9c:	f3042783          	lw	a5,-208(s0)
    3ca0:	00f707b3          	add	a5,a4,a5
    3ca4:	0f100593          	li	a1,241
    3ca8:	00078513          	mv	a0,a5
    3cac:	578000ef          	jal	4224 <__modsi3>
    3cb0:	00050793          	mv	a5,a0
    3cb4:	fef42423          	sw	a5,-24(s0)
    3cb8:	fe442783          	lw	a5,-28(s0)
    3cbc:	00178793          	addi	a5,a5,1
    3cc0:	fef42223          	sw	a5,-28(s0)
    3cc4:	fe442703          	lw	a4,-28(s0)
    3cc8:	00b00793          	li	a5,11
    3ccc:	ece7dee3          	bge	a5,a4,3ba8 <main+0x3b64>
    3cd0:	f2042623          	sw	zero,-212(s0)
    3cd4:	fe042223          	sw	zero,-28(s0)
    3cd8:	09c0006f          	j	3d74 <main+0x3d30>
    3cdc:	ffffe7b7          	lui	a5,0xffffe
    3ce0:	ff078793          	addi	a5,a5,-16 # ffffdff0 <__stack_top+0xffff5ff4>
    3ce4:	00878733          	add	a4,a5,s0
    3ce8:	fe442783          	lw	a5,-28(s0)
    3cec:	00279793          	slli	a5,a5,0x2
    3cf0:	00f707b3          	add	a5,a4,a5
    3cf4:	0ac7a783          	lw	a5,172(a5)
    3cf8:	f2c42703          	lw	a4,-212(s0)
    3cfc:	00f707b3          	add	a5,a4,a5
    3d00:	f2f42623          	sw	a5,-212(s0)
    3d04:	ffffe7b7          	lui	a5,0xffffe
    3d08:	ff078793          	addi	a5,a5,-16 # ffffdff0 <__stack_top+0xffff5ff4>
    3d0c:	00878733          	add	a4,a5,s0
    3d10:	fe442783          	lw	a5,-28(s0)
    3d14:	00279793          	slli	a5,a5,0x2
    3d18:	00f707b3          	add	a5,a4,a5
    3d1c:	0ac7a683          	lw	a3,172(a5)
    3d20:	fe442703          	lw	a4,-28(s0)
    3d24:	41f75793          	srai	a5,a4,0x1f
    3d28:	01d7d793          	srli	a5,a5,0x1d
    3d2c:	00f70733          	add	a4,a4,a5
    3d30:	00777713          	andi	a4,a4,7
    3d34:	40f707b3          	sub	a5,a4,a5
    3d38:	00078493          	mv	s1,a5
    3d3c:	06400593          	li	a1,100
    3d40:	00068513          	mv	a0,a3
    3d44:	4e0000ef          	jal	4224 <__modsi3>
    3d48:	00050793          	mv	a5,a0
    3d4c:	00078693          	mv	a3,a5
    3d50:	ffffe7b7          	lui	a5,0xffffe
    3d54:	ff078793          	addi	a5,a5,-16 # ffffdff0 <__stack_top+0xffff5ff4>
    3d58:	00878733          	add	a4,a5,s0
    3d5c:	00249793          	slli	a5,s1,0x2
    3d60:	00f707b3          	add	a5,a4,a5
    3d64:	08d7a623          	sw	a3,140(a5)
    3d68:	fe442783          	lw	a5,-28(s0)
    3d6c:	00178793          	addi	a5,a5,1
    3d70:	fef42223          	sw	a5,-28(s0)
    3d74:	fe442703          	lw	a4,-28(s0)
    3d78:	00900793          	li	a5,9
    3d7c:	f6e7d0e3          	bge	a5,a4,3cdc <main+0x3c98>
    3d80:	f2c42703          	lw	a4,-212(s0)
    3d84:	3e800793          	li	a5,1000
    3d88:	02e7de63          	bge	a5,a4,3dc4 <main+0x3d80>
    3d8c:	fec42703          	lw	a4,-20(s0)
    3d90:	f3042783          	lw	a5,-208(s0)
    3d94:	00f70733          	add	a4,a4,a5
    3d98:	fe842783          	lw	a5,-24(s0)
    3d9c:	00f70733          	add	a4,a4,a5
    3da0:	41f75793          	srai	a5,a4,0x1f
    3da4:	0147d793          	srli	a5,a5,0x14
    3da8:	00f706b3          	add	a3,a4,a5
    3dac:	00001737          	lui	a4,0x1
    3db0:	fff70713          	addi	a4,a4,-1 # fff <main+0xfbb>
    3db4:	00e6f733          	and	a4,a3,a4
    3db8:	40f707b3          	sub	a5,a4,a5
    3dbc:	fef42623          	sw	a5,-20(s0)
    3dc0:	0ac0006f          	j	3e6c <main+0x3e28>
    3dc4:	f2c42703          	lw	a4,-212(s0)
    3dc8:	1f400793          	li	a5,500
    3dcc:	04e7d863          	bge	a5,a4,3e1c <main+0x3dd8>
    3dd0:	fec42783          	lw	a5,-20(s0)
    3dd4:	00179713          	slli	a4,a5,0x1
    3dd8:	f3042783          	lw	a5,-208(s0)
    3ddc:	00f704b3          	add	s1,a4,a5
    3de0:	fe842783          	lw	a5,-24(s0)
    3de4:	0c800593          	li	a1,200
    3de8:	00078513          	mv	a0,a5
    3dec:	438000ef          	jal	4224 <__modsi3>
    3df0:	00050793          	mv	a5,a0
    3df4:	40f48733          	sub	a4,s1,a5
    3df8:	41f75793          	srai	a5,a4,0x1f
    3dfc:	0147d793          	srli	a5,a5,0x14
    3e00:	00f706b3          	add	a3,a4,a5
    3e04:	00001737          	lui	a4,0x1
    3e08:	fff70713          	addi	a4,a4,-1 # fff <main+0xfbb>
    3e0c:	00e6f733          	and	a4,a3,a4
    3e10:	40f707b3          	sub	a5,a4,a5
    3e14:	fef42623          	sw	a5,-20(s0)
    3e18:	0540006f          	j	3e6c <main+0x3e28>
    3e1c:	f3042703          	lw	a4,-208(s0)
    3e20:	00070793          	mv	a5,a4
    3e24:	00179793          	slli	a5,a5,0x1
    3e28:	00e78733          	add	a4,a5,a4
    3e2c:	fec42783          	lw	a5,-20(s0)
    3e30:	00f704b3          	add	s1,a4,a5
    3e34:	fe842783          	lw	a5,-24(s0)
    3e38:	12c00593          	li	a1,300
    3e3c:	00078513          	mv	a0,a5
    3e40:	3e4000ef          	jal	4224 <__modsi3>
    3e44:	00050793          	mv	a5,a0
    3e48:	00f48733          	add	a4,s1,a5
    3e4c:	41f75793          	srai	a5,a4,0x1f
    3e50:	0147d793          	srli	a5,a5,0x14
    3e54:	00f706b3          	add	a3,a4,a5
    3e58:	00001737          	lui	a4,0x1
    3e5c:	fff70713          	addi	a4,a4,-1 # fff <main+0xfbb>
    3e60:	00e6f733          	and	a4,a3,a4
    3e64:	40f707b3          	sub	a5,a4,a5
    3e68:	fef42623          	sw	a5,-20(s0)
    3e6c:	fec42783          	lw	a5,-20(s0)
    3e70:	0207d463          	bgez	a5,3e98 <main+0x3e54>
    3e74:	fe842783          	lw	a5,-24(s0)
    3e78:	06400593          	li	a1,100
    3e7c:	00078513          	mv	a0,a5
    3e80:	3a4000ef          	jal	4224 <__modsi3>
    3e84:	00050793          	mv	a5,a0
    3e88:	00078713          	mv	a4,a5
    3e8c:	fec42783          	lw	a5,-20(s0)
    3e90:	40f707b3          	sub	a5,a4,a5
    3e94:	fef42623          	sw	a5,-20(s0)
    3e98:	fec42703          	lw	a4,-20(s0)
    3e9c:	41f75793          	srai	a5,a4,0x1f
    3ea0:	0147d793          	srli	a5,a5,0x14
    3ea4:	00f706b3          	add	a3,a4,a5
    3ea8:	00001737          	lui	a4,0x1
    3eac:	fff70713          	addi	a4,a4,-1 # fff <main+0xfbb>
    3eb0:	00e6f733          	and	a4,a3,a4
    3eb4:	40f707b3          	sub	a5,a4,a5
    3eb8:	fef42623          	sw	a5,-20(s0)
    3ebc:	f3042783          	lw	a5,-208(s0)
    3ec0:	3e800593          	li	a1,1000
    3ec4:	00078513          	mv	a0,a5
    3ec8:	35c000ef          	jal	4224 <__modsi3>
    3ecc:	00050793          	mv	a5,a0
    3ed0:	00078713          	mv	a4,a5
    3ed4:	ffffe7b7          	lui	a5,0xffffe
    3ed8:	ff078793          	addi	a5,a5,-16 # ffffdff0 <__stack_top+0xffff5ff4>
    3edc:	008787b3          	add	a5,a5,s0
    3ee0:	10e7a223          	sw	a4,260(a5)
    3ee4:	f2c42783          	lw	a5,-212(s0)
    3ee8:	3e800593          	li	a1,1000
    3eec:	00078513          	mv	a0,a5
    3ef0:	334000ef          	jal	4224 <__modsi3>
    3ef4:	00050793          	mv	a5,a0
    3ef8:	00078713          	mv	a4,a5
    3efc:	ffffe7b7          	lui	a5,0xffffe
    3f00:	ff078793          	addi	a5,a5,-16 # ffffdff0 <__stack_top+0xffff5ff4>
    3f04:	008787b3          	add	a5,a5,s0
    3f08:	10e7a423          	sw	a4,264(a5)
    3f0c:	ffffe7b7          	lui	a5,0xffffe
    3f10:	ff078793          	addi	a5,a5,-16 # ffffdff0 <__stack_top+0xffff5ff4>
    3f14:	008787b3          	add	a5,a5,s0
    3f18:	fec42703          	lw	a4,-20(s0)
    3f1c:	10e7a623          	sw	a4,268(a5)
    3f20:	f3042783          	lw	a5,-208(s0)
    3f24:	def42e23          	sw	a5,-516(s0)
    3f28:	f2c42783          	lw	a5,-212(s0)
    3f2c:	e0f42023          	sw	a5,-512(s0)
    3f30:	ffffe7b7          	lui	a5,0xffffe
    3f34:	ff078793          	addi	a5,a5,-16 # ffffdff0 <__stack_top+0xffff5ff4>
    3f38:	008787b3          	add	a5,a5,s0
    3f3c:	08c7a783          	lw	a5,140(a5)
    3f40:	e0f42223          	sw	a5,-508(s0)
    3f44:	ffffe7b7          	lui	a5,0xffffe
    3f48:	ff078793          	addi	a5,a5,-16 # ffffdff0 <__stack_top+0xffff5ff4>
    3f4c:	008787b3          	add	a5,a5,s0
    3f50:	09c7a783          	lw	a5,156(a5)
    3f54:	e0f42423          	sw	a5,-504(s0)
    3f58:	fe842783          	lw	a5,-24(s0)
    3f5c:	e0f42623          	sw	a5,-500(s0)
    3f60:	fffff7b7          	lui	a5,0xfffff
    3f64:	ff078793          	addi	a5,a5,-16 # ffffeff0 <__stack_top+0xffff6ff4>
    3f68:	008787b3          	add	a5,a5,s0
    3f6c:	fec42703          	lw	a4,-20(s0)
    3f70:	9ce7aa23          	sw	a4,-1580(a5)
    3f74:	ffffe7b7          	lui	a5,0xffffe
    3f78:	ff078793          	addi	a5,a5,-16 # ffffdff0 <__stack_top+0xffff5ff4>
    3f7c:	008787b3          	add	a5,a5,s0
    3f80:	fe842703          	lw	a4,-24(s0)
    3f84:	2ce7a023          	sw	a4,704(a5)
    3f88:	f3042783          	lw	a5,-208(s0)
    3f8c:	aaf42c23          	sw	a5,-1352(s0)
    3f90:	fffff7b7          	lui	a5,0xfffff
    3f94:	ff078793          	addi	a5,a5,-16 # ffffeff0 <__stack_top+0xffff6ff4>
    3f98:	008787b3          	add	a5,a5,s0
    3f9c:	f2c42703          	lw	a4,-212(s0)
    3fa0:	f6e7a623          	sw	a4,-148(a5)
    3fa4:	fec42783          	lw	a5,-20(s0)
    3fa8:	e0f42823          	sw	a5,-496(s0)
    3fac:	fe842783          	lw	a5,-24(s0)
    3fb0:	e0f42a23          	sw	a5,-492(s0)
    3fb4:	f3042783          	lw	a5,-208(s0)
    3fb8:	e0f42c23          	sw	a5,-488(s0)
    3fbc:	f2c42783          	lw	a5,-212(s0)
    3fc0:	e0f42e23          	sw	a5,-484(s0)
    3fc4:	ffffe7b7          	lui	a5,0xffffe
    3fc8:	ff078793          	addi	a5,a5,-16 # ffffdff0 <__stack_top+0xffff5ff4>
    3fcc:	008787b3          	add	a5,a5,s0
    3fd0:	0d47a783          	lw	a5,212(a5)
    3fd4:	e2f42023          	sw	a5,-480(s0)
    3fd8:	ffffe7b7          	lui	a5,0xffffe
    3fdc:	ff078793          	addi	a5,a5,-16 # ffffdff0 <__stack_top+0xffff5ff4>
    3fe0:	008787b3          	add	a5,a5,s0
    3fe4:	0e87a783          	lw	a5,232(a5)
    3fe8:	e2f42223          	sw	a5,-476(s0)
    3fec:	ffffe7b7          	lui	a5,0xffffe
    3ff0:	ff078793          	addi	a5,a5,-16 # ffffdff0 <__stack_top+0xffff5ff4>
    3ff4:	008787b3          	add	a5,a5,s0
    3ff8:	0fc7a783          	lw	a5,252(a5)
    3ffc:	e2f42423          	sw	a5,-472(s0)
    4000:	ffffe7b7          	lui	a5,0xffffe
    4004:	ff078793          	addi	a5,a5,-16 # ffffdff0 <__stack_top+0xffff5ff4>
    4008:	008787b3          	add	a5,a5,s0
    400c:	0b47a783          	lw	a5,180(a5)
    4010:	e2f42623          	sw	a5,-468(s0)
    4014:	ffffe7b7          	lui	a5,0xffffe
    4018:	ff078793          	addi	a5,a5,-16 # ffffdff0 <__stack_top+0xffff5ff4>
    401c:	008787b3          	add	a5,a5,s0
    4020:	0c87a783          	lw	a5,200(a5)
    4024:	e2f42823          	sw	a5,-464(s0)
    4028:	ffffe7b7          	lui	a5,0xffffe
    402c:	ff078793          	addi	a5,a5,-16 # ffffdff0 <__stack_top+0xffff5ff4>
    4030:	008787b3          	add	a5,a5,s0
    4034:	0987a783          	lw	a5,152(a5)
    4038:	e2f42a23          	sw	a5,-460(s0)
    403c:	000137b7          	lui	a5,0x13
    4040:	fd178793          	addi	a5,a5,-47 # 12fd1 <__stack_top+0xafd5>
    4044:	e2f42c23          	sw	a5,-456(s0)
    4048:	000167b7          	lui	a5,0x16
    404c:	b3878793          	addi	a5,a5,-1224 # 15b38 <__stack_top+0xdb3c>
    4050:	e2f42e23          	sw	a5,-452(s0)
    4054:	000187b7          	lui	a5,0x18
    4058:	69f78793          	addi	a5,a5,1695 # 1869f <__stack_top+0x106a3>
    405c:	e4f42023          	sw	a5,-448(s0)
    4060:	fec42783          	lw	a5,-20(s0)
    4064:	3e800593          	li	a1,1000
    4068:	00078513          	mv	a0,a5
    406c:	1b8000ef          	jal	4224 <__modsi3>
    4070:	00050793          	mv	a5,a0
    4074:	e4f42223          	sw	a5,-444(s0)
    4078:	fe842783          	lw	a5,-24(s0)
    407c:	3e800593          	li	a1,1000
    4080:	00078513          	mv	a0,a5
    4084:	1a0000ef          	jal	4224 <__modsi3>
    4088:	00050793          	mv	a5,a0
    408c:	e4f42423          	sw	a5,-440(s0)
    4090:	ffffe7b7          	lui	a5,0xffffe
    4094:	ff078793          	addi	a5,a5,-16 # ffffdff0 <__stack_top+0xffff5ff4>
    4098:	008787b3          	add	a5,a5,s0
    409c:	10c7a783          	lw	a5,268(a5)
    40a0:	e4f42623          	sw	a5,-436(s0)
    40a4:	000037b7          	lui	a5,0x3
    40a8:	b6778793          	addi	a5,a5,-1177 # 2b67 <main+0x2b23>
    40ac:	e4f42823          	sw	a5,-432(s0)
    40b0:	000057b7          	lui	a5,0x5
    40b4:	6ce78793          	addi	a5,a5,1742 # 56ce <__BSS_END__+0x452>
    40b8:	e4f42a23          	sw	a5,-428(s0)
    40bc:	000087b7          	lui	a5,0x8
    40c0:	23578793          	addi	a5,a5,565 # 8235 <__stack_top+0x239>
    40c4:	e4f42c23          	sw	a5,-424(s0)
    40c8:	0000b7b7          	lui	a5,0xb
    40cc:	d9c78793          	addi	a5,a5,-612 # ad9c <__stack_top+0x2da0>
    40d0:	e4f42e23          	sw	a5,-420(s0)
    40d4:	05a00793          	li	a5,90
    40d8:	fef42223          	sw	a5,-28(s0)
    40dc:	0640006f          	j	4140 <main+0x40fc>
    40e0:	fe442703          	lw	a4,-28(s0)
    40e4:	00070793          	mv	a5,a4
    40e8:	00379793          	slli	a5,a5,0x3
    40ec:	00e787b3          	add	a5,a5,a4
    40f0:	00279793          	slli	a5,a5,0x2
    40f4:	40e787b3          	sub	a5,a5,a4
    40f8:	00279793          	slli	a5,a5,0x2
    40fc:	40e787b3          	sub	a5,a5,a4
    4100:	00379793          	slli	a5,a5,0x3
    4104:	40e78733          	sub	a4,a5,a4
    4108:	000027b7          	lui	a5,0x2
    410c:	71078593          	addi	a1,a5,1808 # 2710 <main+0x26cc>
    4110:	00070513          	mv	a0,a4
    4114:	110000ef          	jal	4224 <__modsi3>
    4118:	00050793          	mv	a5,a0
    411c:	00078693          	mv	a3,a5
    4120:	fe442703          	lw	a4,-28(s0)
    4124:	cf840793          	addi	a5,s0,-776
    4128:	00271713          	slli	a4,a4,0x2
    412c:	00f707b3          	add	a5,a4,a5
    4130:	00d7a023          	sw	a3,0(a5)
    4134:	fe442783          	lw	a5,-28(s0)
    4138:	00178793          	addi	a5,a5,1
    413c:	fef42223          	sw	a5,-28(s0)
    4140:	fe442703          	lw	a4,-28(s0)
    4144:	06200793          	li	a5,98
    4148:	f8e7dce3          	bge	a5,a4,40e0 <main+0x409c>
    414c:	0000e7b7          	lui	a5,0xe
    4150:	90378793          	addi	a5,a5,-1789 # d903 <__stack_top+0x5907>
    4154:	e8f42223          	sw	a5,-380(s0)
    4158:	00000793          	li	a5,0
    415c:	00078513          	mv	a0,a5
    4160:	000022b7          	lui	t0,0x2
    4164:	00510133          	add	sp,sp,t0
    4168:	08c12083          	lw	ra,140(sp)
    416c:	08812403          	lw	s0,136(sp)
    4170:	08412483          	lw	s1,132(sp)
    4174:	09010113          	addi	sp,sp,144
    4178:	00008067          	ret

0000417c <__mulsi3>:
    417c:	00050613          	mv	a2,a0
    4180:	00000513          	li	a0,0
    4184:	0015f693          	andi	a3,a1,1
    4188:	00068463          	beqz	a3,4190 <__mulsi3+0x14>
    418c:	00c50533          	add	a0,a0,a2
    4190:	0015d593          	srli	a1,a1,0x1
    4194:	00161613          	slli	a2,a2,0x1
    4198:	fe0596e3          	bnez	a1,4184 <__mulsi3+0x8>
    419c                        addi    x16,x16,1
    41a0:	00008067          	ret

000041a0 <__divsi3>:
    41a4:	06054063          	bltz	a0,4200 <__umodsi3+0x10>
    41a8:	0605c663          	bltz	a1,4210 <__umodsi3+0x20>

000041a8 <__hidden___udivsi3>:
    41ac:	00058613          	mv	a2,a1
    41b0:	00050593          	mv	a1,a0
    41b4:	fff00513          	li	a0,-1
    41b8:	02060c63          	beqz	a2,41ec <__hidden___udivsi3+0x44>
    41bc:	00100693          	li	a3,1
    41c0:	00b67a63          	bgeu	a2,a1,41d0 <__hidden___udivsi3+0x28>
    41c4:	00c05863          	blez	a2,41d0 <__hidden___udivsi3+0x28>
    41c8:	00161613          	slli	a2,a2,0x1
    41cc:	00169693          	slli	a3,a3,0x1
    41d0:	feb66ae3          	bltu	a2,a1,41c0 <__hidden___udivsi3+0x18>
    41d4:	00000513          	li	a0,0
    41d8:	00c5e663          	bltu	a1,a2,41e0 <__hidden___udivsi3+0x38>
    41dc:	40c585b3          	sub	a1,a1,a2
    41e0:	00d56533          	or	a0,a0,a3
    41e4:	0016d693          	srli	a3,a3,0x1
    41e8:	00165613          	srli	a2,a2,0x1
    41ec:	fe0696e3          	bnez	a3,41d4 <__hidden___udivsi3+0x2c>
    41f0:	00008067          	ret

000041f0 <__umodsi3>:
    41f4:	00008293          	mv	t0,ra
    41f8:	fb5ff0ef          	jal	41a8 <__hidden___udivsi3>
    41fc:	00058513          	mv	a0,a1
    4200:	00028067          	jr	t0 # 2000 <main+0x1fbc>
    4204:	40a00533          	neg	a0,a0
    4208:	00b04863          	bgtz	a1,4214 <__umodsi3+0x24>
    420c:	40b005b3          	neg	a1,a1
    4210:	f9dff06f          	j	41a8 <__hidden___udivsi3>
    4214:	40b005b3          	neg	a1,a1
    4218:	00008293          	mv	t0,ra
    421c:	f91ff0ef          	jal	41a8 <__hidden___udivsi3>
    4220:	40a00533          	neg	a0,a0
    4224:	00028067          	jr	t0

00004224 <__modsi3>:
    4228:	00008293          	mv	t0,ra
    422c:	0005ca63          	bltz	a1,423c <__modsi3+0x18>
    4230:	00054c63          	bltz	a0,4244 <__modsi3+0x20>
    4234:	f79ff0ef          	jal	41a8 <__hidden___udivsi3>
    4238:	00058513          	mv	a0,a1
    423c:	00028067          	jr	t0
    4240:	40b005b3          	neg	a1,a1
    4244:	fe0558e3          	bgez	a0,4230 <__modsi3+0xc>
    4248:	40a00533          	neg	a0,a0
    424c:	f61ff0ef          	jal	41a8 <__hidden___udivsi3>
    4250:	40b00533          	neg	a0,a1
    4254:	00028067          	jr	t0
